ARM GAS  C:\Users\isisb\AppData\Local\Temp\ccHBZzjN.s 			page 1


   1              		.cpu cortex-m4
   2              		.eabi_attribute 27, 1
   3              		.eabi_attribute 28, 1
   4              		.eabi_attribute 20, 1
   5              		.eabi_attribute 21, 1
   6              		.eabi_attribute 23, 3
   7              		.eabi_attribute 24, 1
   8              		.eabi_attribute 25, 1
   9              		.eabi_attribute 26, 1
  10              		.eabi_attribute 30, 2
  11              		.eabi_attribute 34, 1
  12              		.eabi_attribute 18, 4
  13              		.file	"main.c"
  14              		.text
  15              	.Ltext0:
  16              		.cfi_sections	.debug_frame
  17              		.section	.text.startup.main,"ax",%progbits
  18              		.align	1
  19              		.p2align 4,,15
  20              		.global	main
  21              		.syntax unified
  22              		.thumb
  23              		.thumb_func
  24              		.fpu fpv4-sp-d16
  25              		.type	main, %function
  26              	main:
  27              	.LFB261:
  28              		.file 1 "main.c"
  29              		.loc 1 46 0
  30              		.cfi_startproc
  31              		@ Volatile: function does not return.
  32              		@ args = 0, pretend = 0, frame = 8
  33              		@ frame_needed = 0, uses_anonymous_args = 0
  34 0000 00B5     		push	{lr}
  35              		.cfi_def_cfa_offset 4
  36              		.cfi_offset 14, -4
  37 0002 1B4B     		ldr	r3, .L22
  38              		.loc 1 73 0
  39 0004 1B4C     		ldr	r4, .L22+4
  40              		.loc 1 46 0
  41 0006 1B68     		ldr	r3, [r3]
  42 0008 83B0     		sub	sp, sp, #12
  43              		.cfi_def_cfa_offset 16
  44              		.loc 1 46 0
  45 000a 0193     		str	r3, [sp, #4]
  46              		.loc 1 48 0
  47 000c FFF7FEFF 		bl	halInit
  48              	.LVL0:
  49              		.loc 1 49 0
  50 0010 FFF7FEFF 		bl	chSysInit
  51              	.LVL1:
  52              		.loc 1 50 0
  53 0014 FFF7FEFF 		bl	mpu_init
  54              	.LVL2:
  55              		.loc 1 52 0
  56 0018 174A     		ldr	r2, .L22+8
  57 001a 1849     		ldr	r1, .L22+12
ARM GAS  C:\Users\isisb\AppData\Local\Temp\ccHBZzjN.s 			page 2


  58 001c 1848     		ldr	r0, .L22+16
  59 001e FFF7FEFF 		bl	messagebus_init
  60              	.LVL3:
  61              	.LBB4:
  62              	.LBB5:
  63              		.loc 1 41 0
  64 0022 1849     		ldr	r1, .L22+20
  65 0024 1848     		ldr	r0, .L22+24
  66 0026 FFF7FEFF 		bl	sdStart
  67              	.LVL4:
  68              	.LBE5:
  69              	.LBE4:
  70              		.loc 1 58 0
  71 002a FFF7FEFF 		bl	usb_start
  72              	.LVL5:
  73              		.loc 1 61 0
  74 002e FFF7FEFF 		bl	proximity_start
  75              	.LVL6:
  76              		.loc 1 62 0
  77 0032 FFF7FEFF 		bl	calibrate_ir
  78              	.LVL7:
  79              		.loc 1 65 0
  80 0036 FFF7FEFF 		bl	motors_init
  81              	.LVL8:
  82              		.loc 1 73 0
  83 003a 2378     		ldrb	r3, [r4]	@ zero_extendqisi2
  84 003c 042B     		cmp	r3, #4
  85 003e 0AD1     		bne	.L19
  86 0040 0EE0     		b	.L6
  87              	.L21:
  88              		.loc 1 75 0
  89 0042 FFF7FEFF 		bl	get_selector
  90              	.LVL9:
  91 0046 2070     		strb	r0, [r4]
  92              		.loc 1 76 0
  93 0048 4FF47A70 		mov	r0, #1000
  94 004c FFF7FEFF 		bl	chThdSleep
  95              	.LVL10:
  96              		.loc 1 73 0
  97 0050 2378     		ldrb	r3, [r4]	@ zero_extendqisi2
  98 0052 042B     		cmp	r3, #4
  99 0054 04D0     		beq	.L6
 100              	.L19:
 101 0056 0C2B     		cmp	r3, #12
 102 0058 F3D1     		bne	.L21
 103              		.loc 1 82 0
 104 005a 0C48     		ldr	r0, .L22+28
 105 005c FFF7FEFF 		bl	mic_start
 106              	.LVL11:
 107              	.L6:
 108              		.loc 1 86 0
 109 0060 2078     		ldrb	r0, [r4]	@ zero_extendqisi2
 110 0062 FFF7FEFF 		bl	move_start
 111              	.LVL12:
 112              	.L5:
 113              		.loc 1 91 0 discriminator 1
 114 0066 4FF47A70 		mov	r0, #1000
ARM GAS  C:\Users\isisb\AppData\Local\Temp\ccHBZzjN.s 			page 3


 115 006a FFF7FEFF 		bl	chThdSleep
 116              	.LVL13:
 117 006e FAE7     		b	.L5
 118              	.L23:
 119              		.align	2
 120              	.L22:
 121 0070 00000000 		.word	__stack_chk_guard
 122 0074 00000000 		.word	.LANCHOR4
 123 0078 00000000 		.word	.LANCHOR0
 124 007c 00000000 		.word	.LANCHOR1
 125 0080 00000000 		.word	.LANCHOR2
 126 0084 00000000 		.word	.LANCHOR3
 127 0088 00000000 		.word	SD3
 128 008c 00000000 		.word	processSound
 129              		.cfi_endproc
 130              	.LFE261:
 131              		.size	main, .-main
 132              		.section	.text.__stack_chk_fail,"ax",%progbits
 133              		.align	1
 134              		.p2align 4,,15
 135              		.global	__stack_chk_fail
 136              		.syntax unified
 137              		.thumb
 138              		.thumb_func
 139              		.fpu fpv4-sp-d16
 140              		.type	__stack_chk_fail, %function
 141              	__stack_chk_fail:
 142              	.LFB262:
 143              		.loc 1 100 0
 144              		.cfi_startproc
 145              		@ args = 0, pretend = 0, frame = 8
 146              		@ frame_needed = 0, uses_anonymous_args = 0
 147 0000 00B5     		push	{lr}
 148              		.cfi_def_cfa_offset 4
 149              		.cfi_offset 14, -4
 150 0002 084B     		ldr	r3, .L29
 151 0004 83B0     		sub	sp, sp, #12
 152              		.cfi_def_cfa_offset 16
 153              		.loc 1 100 0
 154 0006 1A68     		ldr	r2, [r3]
 155 0008 0192     		str	r2, [sp, #4]
 156              		.loc 1 102 0
 157 000a 019A     		ldr	r2, [sp, #4]
 158 000c 1B68     		ldr	r3, [r3]
 159 000e 9A42     		cmp	r2, r3
 160 0010 05D1     		bne	.L28
 161 0012 0548     		ldr	r0, .L29+4
 162              		.loc 1 103 0
 163 0014 03B0     		add	sp, sp, #12
 164              		.cfi_remember_state
 165              		.cfi_def_cfa_offset 4
 166              		@ sp needed
 167 0016 5DF804EB 		ldr	lr, [sp], #4
 168              		.cfi_restore 14
 169              		.cfi_def_cfa_offset 0
 170              		.loc 1 102 0
 171 001a FFF7FEBF 		b	chSysHalt
ARM GAS  C:\Users\isisb\AppData\Local\Temp\ccHBZzjN.s 			page 4


 172              	.LVL14:
 173              	.L28:
 174              		.cfi_restore_state
 175 001e FFF7FEFF 		bl	__stack_chk_fail
 176              	.LVL15:
 177              	.L30:
 178 0022 00BF     		.align	2
 179              	.L29:
 180 0024 00000000 		.word	__stack_chk_guard
 181 0028 00000000 		.word	.LC0
 182              		.cfi_endproc
 183              	.LFE262:
 184              		.size	__stack_chk_fail, .-__stack_chk_fail
 185              		.global	__stack_chk_guard
 186              		.global	bus_condvar
 187              		.global	bus_lock
 188              		.global	bus
 189              		.section	.bss.bus,"aw",%nobits
 190              		.align	2
 191              		.set	.LANCHOR2,. + 0
 192              		.type	bus, %object
 193              		.size	bus, 12
 194              	bus:
 195 0000 00000000 		.space	12
 195      00000000 
 195      00000000 
 196              		.section	.bss.mode.12690,"aw",%nobits
 197              		.set	.LANCHOR4,. + 0
 198              		.type	mode.12690, %object
 199              		.size	mode.12690, 1
 200              	mode.12690:
 201 0000 00       		.space	1
 202              		.section	.data.__stack_chk_guard,"aw",%progbits
 203              		.align	2
 204              		.type	__stack_chk_guard, %object
 205              		.size	__stack_chk_guard, 4
 206              	__stack_chk_guard:
 207 0000 96E3DEE2 		.word	-488709226
 208              		.section	.data.bus_condvar,"aw",%progbits
 209              		.align	2
 210              		.set	.LANCHOR0,. + 0
 211              		.type	bus_condvar, %object
 212              		.size	bus_condvar, 8
 213              	bus_condvar:
 214 0000 00000000 		.word	bus_condvar
 215 0004 00000000 		.word	bus_condvar
 216              		.section	.data.bus_lock,"aw",%progbits
 217              		.align	2
 218              		.set	.LANCHOR1,. + 0
 219              		.type	bus_lock, %object
 220              		.size	bus_lock, 20
 221              	bus_lock:
 222 0000 00000000 		.word	bus_lock
 223 0004 00000000 		.word	bus_lock
 224 0008 00000000 		.word	0
 225 000c 00000000 		.word	0
 226 0010 00000000 		.word	0
ARM GAS  C:\Users\isisb\AppData\Local\Temp\ccHBZzjN.s 			page 5


 227              		.section	.data.ser_cfg.12686,"aw",%progbits
 228              		.align	2
 229              		.set	.LANCHOR3,. + 0
 230              		.type	ser_cfg.12686, %object
 231              		.size	ser_cfg.12686, 12
 232              	ser_cfg.12686:
 233 0000 00C20100 		.word	115200
 234 0004 0000     		.short	0
 235 0006 0000     		.short	0
 236 0008 0000     		.short	0
 237 000a 0000     		.space	2
 238              		.section	.rodata.__stack_chk_fail.str1.4,"aMS",%progbits,1
 239              		.align	2
 240              	.LC0:
 241 0000 53746163 		.ascii	"Stack smashing detected\000"
 241      6B20736D 
 241      61736869 
 241      6E672064 
 241      65746563 
 242              		.text
 243              	.Letext0:
 244              		.file 2 "c:\\users\\isisb\\onedrive\\desktop\\eclipse\\tools\\gcc-arm-none-eabi-7-2017-q4-major-wi
 245              		.file 3 "c:\\users\\isisb\\onedrive\\desktop\\eclipse\\tools\\gcc-arm-none-eabi-7-2017-q4-major-wi
 246              		.file 4 "c:\\users\\isisb\\onedrive\\desktop\\eclipse\\tools\\gcc-arm-none-eabi-7-2017-q4-major-wi
 247              		.file 5 "c:\\users\\isisb\\onedrive\\desktop\\eclipse\\tools\\gcc-arm-none-eabi-7-2017-q4-major-wi
 248              		.file 6 "c:\\users\\isisb\\onedrive\\desktop\\eclipse\\tools\\gcc-arm-none-eabi-7-2017-q4-major-wi
 249              		.file 7 "c:\\users\\isisb\\onedrive\\desktop\\eclipse\\tools\\gcc-arm-none-eabi-7-2017-q4-major-wi
 250              		.file 8 "c:\\users\\isisb\\onedrive\\desktop\\eclipse\\tools\\gcc-arm-none-eabi-7-2017-q4-major-wi
 251              		.file 9 "c:\\users\\isisb\\onedrive\\desktop\\eclipse\\tools\\gcc-arm-none-eabi-7-2017-q4-major-wi
 252              		.file 10 "../../lib/e-puck2_main-processor/ChibiOS//os/rt/ports/ARMCMx/compilers/GCC/chtypes.h"
 253              		.file 11 "../../lib/e-puck2_main-processor/ChibiOS//os/rt/include/chsystypes.h"
 254              		.file 12 "../../lib/e-puck2_main-processor/ChibiOS//os/rt/include/chschd.h"
 255              		.file 13 "../../lib/e-puck2_main-processor/ChibiOS//os/ext/CMSIS/include/core_cm4.h"
 256              		.file 14 "../../lib/e-puck2_main-processor/ChibiOS//os/ext/CMSIS/ST/system_stm32f4xx.h"
 257              		.file 15 "../../lib/e-puck2_main-processor/ChibiOS//os/ext/CMSIS/ST/stm32f407xx.h"
 258              		.file 16 "../../lib/e-puck2_main-processor/ChibiOS//os/rt/ports/ARMCMx/chcore.h"
 259              		.file 17 "../../lib/e-puck2_main-processor/ChibiOS//os/rt/ports/ARMCMx/chcore_v7m.h"
 260              		.file 18 "../../lib/e-puck2_main-processor/ChibiOS//os/rt/include/chdebug.h"
 261              		.file 19 "../../lib/e-puck2_main-processor/ChibiOS//os/rt/include/chtm.h"
 262              		.file 20 "../../lib/e-puck2_main-processor/ChibiOS//os/rt/include/chstats.h"
 263              		.file 21 "../../lib/e-puck2_main-processor/ChibiOS//os/rt/include/chsem.h"
 264              		.file 22 "../../lib/e-puck2_main-processor/ChibiOS//os/rt/include/chmtx.h"
 265              		.file 23 "../../lib/e-puck2_main-processor/ChibiOS//os/rt/include/chregistry.h"
 266              		.file 24 "../../lib/e-puck2_main-processor/ChibiOS//os/rt/include/chcond.h"
 267              		.file 25 "../../lib/e-puck2_main-processor/ChibiOS//os/rt/include/chevents.h"
 268              		.file 26 "../../lib/e-puck2_main-processor/ChibiOS//os/rt/include/chqueues.h"
 269              		.file 27 "../../lib/e-puck2_main-processor/ChibiOS//os/hal/ports/STM32/STM32F4xx/stm32_dma.h"
 270              		.file 28 "../../lib/e-puck2_main-processor/ChibiOS//os/hal/include/hal_ioblock.h"
 271              		.file 29 "../../lib/e-puck2_main-processor/ChibiOS//os/hal/ports/STM32/LLD/GPIOv2/pal_lld.h"
 272              		.file 30 "../../lib/e-puck2_main-processor/ChibiOS//os/hal/include/adc.h"
 273              		.file 31 "../../lib/e-puck2_main-processor/ChibiOS//os/hal/ports/STM32/STM32F4xx/adc_lld.h"
 274              		.file 32 "../../lib/e-puck2_main-processor/ChibiOS//os/hal/include/can.h"
 275              		.file 33 "../../lib/e-puck2_main-processor/ChibiOS//os/hal/ports/STM32/LLD/can_lld.h"
 276              		.file 34 "../../lib/e-puck2_main-processor/ChibiOS//os/hal/include/dac.h"
 277              		.file 35 "../../lib/e-puck2_main-processor/ChibiOS//os/hal/ports/STM32/LLD/DACv1/dac_lld.h"
 278              		.file 36 "../../lib/e-puck2_main-processor/ChibiOS//os/hal/include/ext.h"
 279              		.file 37 "../../lib/e-puck2_main-processor/ChibiOS//os/hal/ports/STM32/LLD/ext_lld.h"
ARM GAS  C:\Users\isisb\AppData\Local\Temp\ccHBZzjN.s 			page 6


 280              		.file 38 "../../lib/e-puck2_main-processor/ChibiOS//os/hal/include/gpt.h"
 281              		.file 39 "../../lib/e-puck2_main-processor/ChibiOS//os/hal/ports/STM32/LLD/TIMv1/gpt_lld.h"
 282              		.file 40 "../../lib/e-puck2_main-processor/ChibiOS//os/hal/ports/STM32/LLD/TIMv1/stm32_tim.h"
 283              		.file 41 "../../lib/e-puck2_main-processor/ChibiOS//os/hal/include/i2c.h"
 284              		.file 42 "../../lib/e-puck2_main-processor/ChibiOS//os/hal/ports/STM32/LLD/I2Cv1/i2c_lld.h"
 285              		.file 43 "../../lib/e-puck2_main-processor/ChibiOS//os/hal/include/i2s.h"
 286              		.file 44 "../../lib/e-puck2_main-processor/ChibiOS//os/hal/ports/STM32/LLD/SPIv1/i2s_lld.h"
 287              		.file 45 "../../lib/e-puck2_main-processor/ChibiOS//os/hal/include/pwm.h"
 288              		.file 46 "../../lib/e-puck2_main-processor/ChibiOS//os/hal/ports/STM32/LLD/TIMv1/pwm_lld.h"
 289              		.file 47 "../../lib/e-puck2_main-processor/ChibiOS//os/hal/include/serial.h"
 290              		.file 48 "../../lib/e-puck2_main-processor/ChibiOS//os/hal/ports/STM32/LLD/USARTv1/serial_lld.h"
 291              		.file 49 "../../lib/e-puck2_main-processor/ChibiOS//os/hal/include/sdc.h"
 292              		.file 50 "../../lib/e-puck2_main-processor/ChibiOS//os/hal/ports/STM32/LLD/sdc_lld.h"
 293              		.file 51 "../../lib/e-puck2_main-processor/ChibiOS//os/hal/include/spi.h"
 294              		.file 52 "../../lib/e-puck2_main-processor/ChibiOS//os/hal/ports/STM32/LLD/SPIv1/spi_lld.h"
 295              		.file 53 "../../lib/e-puck2_main-processor/ChibiOS//os/hal/include/usb.h"
 296              		.file 54 "../../lib/e-puck2_main-processor/ChibiOS//os/hal/ports/STM32/LLD/OTGv1/usb_lld.h"
 297              		.file 55 "../../lib/e-puck2_main-processor/ChibiOS//os/hal/ports/STM32/LLD/OTGv1/stm32_otg.h"
 298              		.file 56 "../../lib/e-puck2_main-processor/ChibiOS//os/hal/include/serial_usb.h"
 299              		.file 57 "../../lib/e-puck2_main-processor/src/usbcfg.h"
 300              		.file 58 "c:\\users\\isisb\\onedrive\\desktop\\eclipse\\tools\\gcc-arm-none-eabi-7-2017-q4-major-w
 301              		.file 59 "../../lib/e-puck2_main-processor/src/msgbus/messagebus.h"
 302              		.file 60 "../../lib/e-puck2_main-processor/src/parameter/parameter.h"
 303              		.file 61 "./main.h"
 304              		.file 62 "../../lib/e-puck2_main-processor/ChibiOS//os/rt/include/chsys.h"
 305              		.file 63 "../../lib/e-puck2_main-processor/ChibiOS//os/hal/include/hal.h"
 306              		.file 64 "../../lib/e-puck2_main-processor/src/memory_protection.h"
 307              		.file 65 "../../lib/e-puck2_main-processor/src/sensors/proximity.h"
 308              		.file 66 "../../lib/e-puck2_main-processor/src/motors.h"
 309              		.file 67 "../../lib/e-puck2_main-processor/src/selector.h"
 310              		.file 68 "../../lib/e-puck2_main-processor/ChibiOS//os/rt/include/chthreads.h"
 311              		.file 69 "../../lib/e-puck2_main-processor/src/audio/microphone.h"
 312              		.file 70 "./move.h"