ARM GAS  C:\Users\Admin\AppData\Local\Temp\ccjJNCUZ.s 			page 1


   1              		.cpu cortex-m4
   2              		.eabi_attribute 27, 1
   3              		.eabi_attribute 28, 1
   4              		.eabi_attribute 20, 1
   5              		.eabi_attribute 21, 1
   6              		.eabi_attribute 23, 3
   7              		.eabi_attribute 24, 1
   8              		.eabi_attribute 25, 1
   9              		.eabi_attribute 26, 1
  10              		.eabi_attribute 30, 2
  11              		.eabi_attribute 34, 1
  12              		.eabi_attribute 18, 4
  13              		.file	"move.c"
  14              		.text
  15              	.Ltext0:
  16              		.cfi_sections	.debug_frame
  17              		.section	.text.chprintf.constprop.0,"ax",%progbits
  18              		.align	1
  19              		.p2align 4,,15
  20              		.syntax unified
  21              		.thumb
  22              		.thumb_func
  23              		.fpu fpv4-sp-d16
  24              		.type	chprintf.constprop.0, %function
  25              	chprintf.constprop.0:
  26              	.LFB273:
  27              		.file 1 "../../lib/e-puck2_main-processor/ChibiOS//os/hal/lib/streams/chprintf.h"
  28              		.loc 1 69 0
  29              		.cfi_startproc
  30              		@ args = 4, pretend = 12, frame = 8
  31              		@ frame_needed = 0, uses_anonymous_args = 1
  32              	.LVL0:
  33 0000 0EB4     		push	{r1, r2, r3}
  34              		.cfi_def_cfa_offset 12
  35              		.cfi_offset 1, -12
  36              		.cfi_offset 2, -8
  37              		.cfi_offset 3, -4
  38 0002 10B5     		push	{r4, lr}
  39              		.cfi_def_cfa_offset 20
  40              		.cfi_offset 4, -20
  41              		.cfi_offset 14, -16
  42 0004 83B0     		sub	sp, sp, #12
  43              		.cfi_def_cfa_offset 32
  44              		.loc 1 69 0
  45 0006 05AA     		add	r2, sp, #20
  46 0008 094C     		ldr	r4, .L6
  47 000a 52F8041B 		ldr	r1, [r2], #4
  48 000e 2368     		ldr	r3, [r4]
  49              		.loc 1 74 0
  50 0010 0848     		ldr	r0, .L6+4
  51              	.LVL1:
  52              		.loc 1 73 0
  53 0012 0092     		str	r2, [sp]
  54              		.loc 1 69 0
  55 0014 0193     		str	r3, [sp, #4]
  56              	.LVL2:
  57              		.loc 1 74 0
ARM GAS  C:\Users\Admin\AppData\Local\Temp\ccjJNCUZ.s 			page 2


  58 0016 FFF7FEFF 		bl	chvprintf
  59              	.LVL3:
  60              		.loc 1 78 0
  61 001a 019A     		ldr	r2, [sp, #4]
  62 001c 2368     		ldr	r3, [r4]
  63 001e 9A42     		cmp	r2, r3
  64 0020 04D1     		bne	.L5
  65 0022 03B0     		add	sp, sp, #12
  66              		.cfi_remember_state
  67              		.cfi_def_cfa_offset 20
  68              		@ sp needed
  69 0024 BDE81040 		pop	{r4, lr}
  70              		.cfi_restore 14
  71              		.cfi_restore 4
  72              		.cfi_def_cfa_offset 12
  73 0028 03B0     		add	sp, sp, #12
  74              		.cfi_restore 3
  75              		.cfi_restore 2
  76              		.cfi_restore 1
  77              		.cfi_def_cfa_offset 0
  78 002a 7047     		bx	lr
  79              	.L5:
  80              		.cfi_restore_state
  81 002c FFF7FEFF 		bl	__stack_chk_fail
  82              	.LVL4:
  83              	.L7:
  84              		.align	2
  85              	.L6:
  86 0030 00000000 		.word	__stack_chk_guard
  87 0034 00000000 		.word	SD3
  88              		.cfi_endproc
  89              	.LFE273:
  90              		.size	chprintf.constprop.0, .-chprintf.constprop.0
  91              		.section	.text.move_start,"ax",%progbits
  92              		.align	1
  93              		.p2align 4,,15
  94              		.global	move_start
  95              		.syntax unified
  96              		.thumb
  97              		.thumb_func
  98              		.fpu fpv4-sp-d16
  99              		.type	move_start, %function
 100              	move_start:
 101              	.LFB258:
 102              		.file 2 "move.c"
 103              		.loc 2 57 0
 104              		.cfi_startproc
 105              		@ args = 0, pretend = 0, frame = 8
 106              		@ frame_needed = 0, uses_anonymous_args = 0
 107              	.LVL5:
 108 0000 30B5     		push	{r4, r5, lr}
 109              		.cfi_def_cfa_offset 12
 110              		.cfi_offset 4, -12
 111              		.cfi_offset 5, -8
 112              		.cfi_offset 14, -4
 113 0002 0F4C     		ldr	r4, .L12
 114 0004 85B0     		sub	sp, sp, #20
ARM GAS  C:\Users\Admin\AppData\Local\Temp\ccjJNCUZ.s 			page 3


 115              		.cfi_def_cfa_offset 32
 116              		.loc 2 57 0
 117 0006 2368     		ldr	r3, [r4]
 118 0008 0393     		str	r3, [sp, #12]
 119 000a 0546     		mov	r5, r0
 120              		.loc 2 59 0
 121 000c 0020     		movs	r0, #0
 122              	.LVL6:
 123 000e FFF7FEFF 		bl	right_motor_set_speed
 124              	.LVL7:
 125              		.loc 2 60 0
 126 0012 0020     		movs	r0, #0
 127 0014 FFF7FEFF 		bl	left_motor_set_speed
 128              	.LVL8:
 129              		.loc 2 62 0
 130 0018 0A4A     		ldr	r2, .L12+4
 131              		.loc 2 64 0
 132 001a 0B4B     		ldr	r3, .L12+8
 133              		.loc 2 62 0
 134 001c 1570     		strb	r5, [r2]
 135              		.loc 2 64 0
 136 001e 0022     		movs	r2, #0
 137 0020 0092     		str	r2, [sp]
 138 0022 0A48     		ldr	r0, .L12+12
 139 0024 4022     		movs	r2, #64
 140 0026 41F27811 		movw	r1, #4472
 141 002a FFF7FEFF 		bl	chThdCreateStatic
 142              	.LVL9:
 143              		.loc 2 65 0
 144 002e 039A     		ldr	r2, [sp, #12]
 145 0030 2368     		ldr	r3, [r4]
 146 0032 9A42     		cmp	r2, r3
 147 0034 01D1     		bne	.L11
 148 0036 05B0     		add	sp, sp, #20
 149              		.cfi_remember_state
 150              		.cfi_def_cfa_offset 12
 151              		@ sp needed
 152 0038 30BD     		pop	{r4, r5, pc}
 153              	.L11:
 154              		.cfi_restore_state
 155 003a FFF7FEFF 		bl	__stack_chk_fail
 156              	.LVL10:
 157              	.L13:
 158 003e 00BF     		.align	2
 159              	.L12:
 160 0040 00000000 		.word	__stack_chk_guard
 161 0044 00000000 		.word	.LANCHOR0
 162 0048 00000000 		.word	ThdMove
 163 004c 00000000 		.word	waThdMove
 164              		.cfi_endproc
 165              	.LFE258:
 166              		.size	move_start, .-move_start
 167              		.section	.text.print_measures,"ax",%progbits
 168              		.align	1
 169              		.p2align 4,,15
 170              		.global	print_measures
 171              		.syntax unified
ARM GAS  C:\Users\Admin\AppData\Local\Temp\ccjJNCUZ.s 			page 4


 172              		.thumb
 173              		.thumb_func
 174              		.fpu fpv4-sp-d16
 175              		.type	print_measures, %function
 176              	print_measures:
 177              	.LFB262:
 178              		.loc 2 269 0
 179              		.cfi_startproc
 180              		@ args = 0, pretend = 0, frame = 8
 181              		@ frame_needed = 0, uses_anonymous_args = 0
 182              	.LVL11:
 183 0000 30B5     		push	{r4, r5, lr}
 184              		.cfi_def_cfa_offset 12
 185              		.cfi_offset 4, -12
 186              		.cfi_offset 5, -8
 187              		.cfi_offset 14, -4
 188 0002 1B4D     		ldr	r5, .L19
 189              		.loc 2 271 0
 190 0004 C269     		ldr	r2, [r0, #28]
 191              		.loc 2 269 0
 192 0006 2B68     		ldr	r3, [r5]
 193              		.loc 2 271 0
 194 0008 1A49     		ldr	r1, .L19+4
 195              		.loc 2 269 0
 196 000a 83B0     		sub	sp, sp, #12
 197              		.cfi_def_cfa_offset 24
 198              		.loc 2 269 0
 199 000c 0446     		mov	r4, r0
 200              		.loc 2 271 0
 201 000e 1A48     		ldr	r0, .L19+8
 202              	.LVL12:
 203              		.loc 2 269 0
 204 0010 0193     		str	r3, [sp, #4]
 205              		.loc 2 271 0
 206 0012 FFF7FEFF 		bl	chprintf.constprop.0
 207              	.LVL13:
 208              		.loc 2 272 0
 209 0016 2268     		ldr	r2, [r4]
 210 0018 1849     		ldr	r1, .L19+12
 211 001a 1748     		ldr	r0, .L19+8
 212 001c FFF7FEFF 		bl	chprintf.constprop.0
 213              	.LVL14:
 214              		.loc 2 273 0
 215 0020 A269     		ldr	r2, [r4, #24]
 216 0022 1749     		ldr	r1, .L19+16
 217 0024 1448     		ldr	r0, .L19+8
 218 0026 FFF7FEFF 		bl	chprintf.constprop.0
 219              	.LVL15:
 220              		.loc 2 274 0
 221 002a 6268     		ldr	r2, [r4, #4]
 222 002c 1549     		ldr	r1, .L19+20
 223 002e 1248     		ldr	r0, .L19+8
 224 0030 FFF7FEFF 		bl	chprintf.constprop.0
 225              	.LVL16:
 226              		.loc 2 275 0
 227 0034 6269     		ldr	r2, [r4, #20]
 228 0036 1449     		ldr	r1, .L19+24
ARM GAS  C:\Users\Admin\AppData\Local\Temp\ccjJNCUZ.s 			page 5


 229 0038 0F48     		ldr	r0, .L19+8
 230 003a FFF7FEFF 		bl	chprintf.constprop.0
 231              	.LVL17:
 232              		.loc 2 276 0
 233 003e A268     		ldr	r2, [r4, #8]
 234 0040 1249     		ldr	r1, .L19+28
 235 0042 0D48     		ldr	r0, .L19+8
 236 0044 FFF7FEFF 		bl	chprintf.constprop.0
 237              	.LVL18:
 238              		.loc 2 277 0
 239 0048 2269     		ldr	r2, [r4, #16]
 240 004a 1149     		ldr	r1, .L19+32
 241 004c 0A48     		ldr	r0, .L19+8
 242 004e FFF7FEFF 		bl	chprintf.constprop.0
 243              	.LVL19:
 244              		.loc 2 278 0
 245 0052 019A     		ldr	r2, [sp, #4]
 246 0054 2B68     		ldr	r3, [r5]
 247 0056 9A42     		cmp	r2, r3
 248 0058 07D1     		bne	.L18
 249 005a E268     		ldr	r2, [r4, #12]
 250 005c 0D49     		ldr	r1, .L19+36
 251 005e 0648     		ldr	r0, .L19+8
 252              		.loc 2 279 0
 253 0060 03B0     		add	sp, sp, #12
 254              		.cfi_remember_state
 255              		.cfi_def_cfa_offset 12
 256              		@ sp needed
 257 0062 BDE83040 		pop	{r4, r5, lr}
 258              		.cfi_restore 14
 259              		.cfi_restore 5
 260              		.cfi_restore 4
 261              		.cfi_def_cfa_offset 0
 262              	.LVL20:
 263              		.loc 2 278 0
 264 0066 FFF7FEBF 		b	chprintf.constprop.0
 265              	.LVL21:
 266              	.L18:
 267              		.cfi_restore_state
 268 006a FFF7FEFF 		bl	__stack_chk_fail
 269              	.LVL22:
 270              	.L20:
 271 006e 00BF     		.align	2
 272              	.L19:
 273 0070 00000000 		.word	__stack_chk_guard
 274 0074 00000000 		.word	.LC0
 275 0078 00000000 		.word	SD3
 276 007c 1C000000 		.word	.LC1
 277 0080 38000000 		.word	.LC2
 278 0084 58000000 		.word	.LC3
 279 0088 78000000 		.word	.LC4
 280 008c 94000000 		.word	.LC5
 281 0090 B0000000 		.word	.LC6
 282 0094 C8000000 		.word	.LC7
 283              		.cfi_endproc
 284              	.LFE262:
 285              		.size	print_measures, .-print_measures
ARM GAS  C:\Users\Admin\AppData\Local\Temp\ccjJNCUZ.s 			page 6


 286              		.section	.text.measure_dist_cal,"ax",%progbits
 287              		.align	1
 288              		.p2align 4,,15
 289              		.global	measure_dist_cal
 290              		.syntax unified
 291              		.thumb
 292              		.thumb_func
 293              		.fpu fpv4-sp-d16
 294              		.type	measure_dist_cal, %function
 295              	measure_dist_cal:
 296              	.LFB263:
 297              		.loc 2 281 0
 298              		.cfi_startproc
 299              		@ args = 0, pretend = 0, frame = 8
 300              		@ frame_needed = 0, uses_anonymous_args = 0
 301              	.LVL23:
 302 0000 30B5     		push	{r4, r5, lr}
 303              		.cfi_def_cfa_offset 12
 304              		.cfi_offset 4, -12
 305              		.cfi_offset 5, -8
 306              		.cfi_offset 14, -4
 307 0002 164D     		ldr	r5, .L25
 308 0004 83B0     		sub	sp, sp, #12
 309              		.cfi_def_cfa_offset 24
 310              		.loc 2 281 0
 311 0006 2B68     		ldr	r3, [r5]
 312 0008 0193     		str	r3, [sp, #4]
 313 000a 0446     		mov	r4, r0
 314              		.loc 2 283 0
 315 000c 0020     		movs	r0, #0
 316              	.LVL24:
 317 000e FFF7FEFF 		bl	get_calibrated_prox
 318              	.LVL25:
 319 0012 2060     		str	r0, [r4]
 320              		.loc 2 284 0
 321 0014 0720     		movs	r0, #7
 322 0016 FFF7FEFF 		bl	get_calibrated_prox
 323              	.LVL26:
 324 001a E061     		str	r0, [r4, #28]
 325              		.loc 2 285 0
 326 001c 0120     		movs	r0, #1
 327 001e FFF7FEFF 		bl	get_calibrated_prox
 328              	.LVL27:
 329 0022 6060     		str	r0, [r4, #4]
 330              		.loc 2 286 0
 331 0024 0620     		movs	r0, #6
 332 0026 FFF7FEFF 		bl	get_calibrated_prox
 333              	.LVL28:
 334 002a A061     		str	r0, [r4, #24]
 335              		.loc 2 287 0
 336 002c 0220     		movs	r0, #2
 337 002e FFF7FEFF 		bl	get_calibrated_prox
 338              	.LVL29:
 339 0032 A060     		str	r0, [r4, #8]
 340              		.loc 2 288 0
 341 0034 0520     		movs	r0, #5
 342 0036 FFF7FEFF 		bl	get_calibrated_prox
ARM GAS  C:\Users\Admin\AppData\Local\Temp\ccjJNCUZ.s 			page 7


 343              	.LVL30:
 344 003a 6061     		str	r0, [r4, #20]
 345              		.loc 2 289 0
 346 003c 0320     		movs	r0, #3
 347 003e FFF7FEFF 		bl	get_calibrated_prox
 348              	.LVL31:
 349 0042 E060     		str	r0, [r4, #12]
 350              		.loc 2 290 0
 351 0044 0420     		movs	r0, #4
 352 0046 FFF7FEFF 		bl	get_calibrated_prox
 353              	.LVL32:
 354              		.loc 2 291 0
 355 004a 019A     		ldr	r2, [sp, #4]
 356 004c 2B68     		ldr	r3, [r5]
 357              		.loc 2 290 0
 358 004e 2061     		str	r0, [r4, #16]
 359              		.loc 2 291 0
 360 0050 9A42     		cmp	r2, r3
 361 0052 01D1     		bne	.L24
 362 0054 03B0     		add	sp, sp, #12
 363              		.cfi_remember_state
 364              		.cfi_def_cfa_offset 12
 365              		@ sp needed
 366 0056 30BD     		pop	{r4, r5, pc}
 367              	.LVL33:
 368              	.L24:
 369              		.cfi_restore_state
 370 0058 FFF7FEFF 		bl	__stack_chk_fail
 371              	.LVL34:
 372              	.L26:
 373              		.align	2
 374              	.L25:
 375 005c 00000000 		.word	__stack_chk_guard
 376              		.cfi_endproc
 377              	.LFE263:
 378              		.size	measure_dist_cal, .-measure_dist_cal
 379              		.section	.text.print_calibrated_measures,"ax",%progbits
 380              		.align	1
 381              		.p2align 4,,15
 382              		.global	print_calibrated_measures
 383              		.syntax unified
 384              		.thumb
 385              		.thumb_func
 386              		.fpu fpv4-sp-d16
 387              		.type	print_calibrated_measures, %function
 388              	print_calibrated_measures:
 389              	.LFB261:
 390              		.loc 2 254 0
 391              		.cfi_startproc
 392              		@ args = 0, pretend = 0, frame = 8
 393              		@ frame_needed = 0, uses_anonymous_args = 0
 394              	.LVL35:
 395 0000 30B5     		push	{r4, r5, lr}
 396              		.cfi_def_cfa_offset 12
 397              		.cfi_offset 4, -12
 398              		.cfi_offset 5, -8
 399              		.cfi_offset 14, -4
ARM GAS  C:\Users\Admin\AppData\Local\Temp\ccjJNCUZ.s 			page 8


 400 0002 1C4D     		ldr	r5, .L32
 401 0004 83B0     		sub	sp, sp, #12
 402              		.cfi_def_cfa_offset 24
 403              		.loc 2 254 0
 404 0006 0446     		mov	r4, r0
 405 0008 2B68     		ldr	r3, [r5]
 406 000a 0193     		str	r3, [sp, #4]
 407              		.loc 2 256 0
 408 000c FFF7FEFF 		bl	measure_dist_cal
 409              	.LVL36:
 410              		.loc 2 258 0
 411 0010 E269     		ldr	r2, [r4, #28]
 412 0012 1949     		ldr	r1, .L32+4
 413 0014 1948     		ldr	r0, .L32+8
 414 0016 FFF7FEFF 		bl	chprintf.constprop.0
 415              	.LVL37:
 416              		.loc 2 259 0
 417 001a 2268     		ldr	r2, [r4]
 418 001c 1849     		ldr	r1, .L32+12
 419 001e 1748     		ldr	r0, .L32+8
 420 0020 FFF7FEFF 		bl	chprintf.constprop.0
 421              	.LVL38:
 422              		.loc 2 260 0
 423 0024 A269     		ldr	r2, [r4, #24]
 424 0026 1749     		ldr	r1, .L32+16
 425 0028 1448     		ldr	r0, .L32+8
 426 002a FFF7FEFF 		bl	chprintf.constprop.0
 427              	.LVL39:
 428              		.loc 2 261 0
 429 002e 6268     		ldr	r2, [r4, #4]
 430 0030 1549     		ldr	r1, .L32+20
 431 0032 1248     		ldr	r0, .L32+8
 432 0034 FFF7FEFF 		bl	chprintf.constprop.0
 433              	.LVL40:
 434              		.loc 2 262 0
 435 0038 6269     		ldr	r2, [r4, #20]
 436 003a 1449     		ldr	r1, .L32+24
 437 003c 0F48     		ldr	r0, .L32+8
 438 003e FFF7FEFF 		bl	chprintf.constprop.0
 439              	.LVL41:
 440              		.loc 2 263 0
 441 0042 A268     		ldr	r2, [r4, #8]
 442 0044 1249     		ldr	r1, .L32+28
 443 0046 0D48     		ldr	r0, .L32+8
 444 0048 FFF7FEFF 		bl	chprintf.constprop.0
 445              	.LVL42:
 446              		.loc 2 264 0
 447 004c 2269     		ldr	r2, [r4, #16]
 448 004e 1149     		ldr	r1, .L32+32
 449 0050 0A48     		ldr	r0, .L32+8
 450 0052 FFF7FEFF 		bl	chprintf.constprop.0
 451              	.LVL43:
 452              		.loc 2 265 0
 453 0056 019A     		ldr	r2, [sp, #4]
 454 0058 2B68     		ldr	r3, [r5]
 455 005a 9A42     		cmp	r2, r3
 456 005c 07D1     		bne	.L31
ARM GAS  C:\Users\Admin\AppData\Local\Temp\ccjJNCUZ.s 			page 9


 457 005e E268     		ldr	r2, [r4, #12]
 458 0060 0D49     		ldr	r1, .L32+36
 459 0062 0648     		ldr	r0, .L32+8
 460              		.loc 2 267 0
 461 0064 03B0     		add	sp, sp, #12
 462              		.cfi_remember_state
 463              		.cfi_def_cfa_offset 12
 464              		@ sp needed
 465 0066 BDE83040 		pop	{r4, r5, lr}
 466              		.cfi_restore 14
 467              		.cfi_restore 5
 468              		.cfi_restore 4
 469              		.cfi_def_cfa_offset 0
 470              	.LVL44:
 471              		.loc 2 265 0
 472 006a FFF7FEBF 		b	chprintf.constprop.0
 473              	.LVL45:
 474              	.L31:
 475              		.cfi_restore_state
 476 006e FFF7FEFF 		bl	__stack_chk_fail
 477              	.LVL46:
 478              	.L33:
 479 0072 00BF     		.align	2
 480              	.L32:
 481 0074 00000000 		.word	__stack_chk_guard
 482 0078 00000000 		.word	.LC8
 483 007c 00000000 		.word	SD3
 484 0080 28000000 		.word	.LC9
 485 0084 50000000 		.word	.LC10
 486 0088 7C000000 		.word	.LC11
 487 008c A8000000 		.word	.LC12
 488 0090 CC000000 		.word	.LC13
 489 0094 F4000000 		.word	.LC14
 490 0098 18010000 		.word	.LC15
 491              		.cfi_endproc
 492              	.LFE261:
 493              		.size	print_calibrated_measures, .-print_calibrated_measures
 494              		.section	.text.measure_dist,"ax",%progbits
 495              		.align	1
 496              		.p2align 4,,15
 497              		.global	measure_dist
 498              		.syntax unified
 499              		.thumb
 500              		.thumb_func
 501              		.fpu fpv4-sp-d16
 502              		.type	measure_dist, %function
 503              	measure_dist:
 504              	.LFB264:
 505              		.loc 2 293 0
 506              		.cfi_startproc
 507              		@ args = 0, pretend = 0, frame = 8
 508              		@ frame_needed = 0, uses_anonymous_args = 0
 509              	.LVL47:
 510 0000 30B5     		push	{r4, r5, lr}
 511              		.cfi_def_cfa_offset 12
 512              		.cfi_offset 4, -12
 513              		.cfi_offset 5, -8
ARM GAS  C:\Users\Admin\AppData\Local\Temp\ccjJNCUZ.s 			page 10


 514              		.cfi_offset 14, -4
 515 0002 164D     		ldr	r5, .L38
 516 0004 83B0     		sub	sp, sp, #12
 517              		.cfi_def_cfa_offset 24
 518              		.loc 2 293 0
 519 0006 2B68     		ldr	r3, [r5]
 520 0008 0193     		str	r3, [sp, #4]
 521 000a 0446     		mov	r4, r0
 522              		.loc 2 295 0
 523 000c 0020     		movs	r0, #0
 524              	.LVL48:
 525 000e FFF7FEFF 		bl	get_prox
 526              	.LVL49:
 527 0012 2060     		str	r0, [r4]
 528              		.loc 2 296 0
 529 0014 0720     		movs	r0, #7
 530 0016 FFF7FEFF 		bl	get_prox
 531              	.LVL50:
 532 001a E061     		str	r0, [r4, #28]
 533              		.loc 2 297 0
 534 001c 0120     		movs	r0, #1
 535 001e FFF7FEFF 		bl	get_prox
 536              	.LVL51:
 537 0022 6060     		str	r0, [r4, #4]
 538              		.loc 2 298 0
 539 0024 0620     		movs	r0, #6
 540 0026 FFF7FEFF 		bl	get_prox
 541              	.LVL52:
 542 002a A061     		str	r0, [r4, #24]
 543              		.loc 2 299 0
 544 002c 0220     		movs	r0, #2
 545 002e FFF7FEFF 		bl	get_prox
 546              	.LVL53:
 547 0032 A060     		str	r0, [r4, #8]
 548              		.loc 2 300 0
 549 0034 0520     		movs	r0, #5
 550 0036 FFF7FEFF 		bl	get_prox
 551              	.LVL54:
 552 003a 6061     		str	r0, [r4, #20]
 553              		.loc 2 301 0
 554 003c 0320     		movs	r0, #3
 555 003e FFF7FEFF 		bl	get_prox
 556              	.LVL55:
 557 0042 E060     		str	r0, [r4, #12]
 558              		.loc 2 302 0
 559 0044 0420     		movs	r0, #4
 560 0046 FFF7FEFF 		bl	get_prox
 561              	.LVL56:
 562              		.loc 2 303 0
 563 004a 019A     		ldr	r2, [sp, #4]
 564 004c 2B68     		ldr	r3, [r5]
 565              		.loc 2 302 0
 566 004e 2061     		str	r0, [r4, #16]
 567              		.loc 2 303 0
 568 0050 9A42     		cmp	r2, r3
 569 0052 01D1     		bne	.L37
 570 0054 03B0     		add	sp, sp, #12
ARM GAS  C:\Users\Admin\AppData\Local\Temp\ccjJNCUZ.s 			page 11


 571              		.cfi_remember_state
 572              		.cfi_def_cfa_offset 12
 573              		@ sp needed
 574 0056 30BD     		pop	{r4, r5, pc}
 575              	.LVL57:
 576              	.L37:
 577              		.cfi_restore_state
 578 0058 FFF7FEFF 		bl	__stack_chk_fail
 579              	.LVL58:
 580              	.L39:
 581              		.align	2
 582              	.L38:
 583 005c 00000000 		.word	__stack_chk_guard
 584              		.cfi_endproc
 585              	.LFE264:
 586              		.size	measure_dist, .-measure_dist
 587              		.section	.text.junction_detection,"ax",%progbits
 588              		.align	1
 589              		.p2align 4,,15
 590              		.global	junction_detection
 591              		.syntax unified
 592              		.thumb
 593              		.thumb_func
 594              		.fpu fpv4-sp-d16
 595              		.type	junction_detection, %function
 596              	junction_detection:
 597              	.LFB259:
 598              		.loc 2 70 0
 599              		.cfi_startproc
 600              		@ args = 0, pretend = 0, frame = 8
 601              		@ frame_needed = 0, uses_anonymous_args = 0
 602              	.LVL59:
 603 0000 30B5     		push	{r4, r5, lr}
 604              		.cfi_def_cfa_offset 12
 605              		.cfi_offset 4, -12
 606              		.cfi_offset 5, -8
 607              		.cfi_offset 14, -4
 608 0002 244D     		ldr	r5, .L56
 609 0004 83B0     		sub	sp, sp, #12
 610              		.cfi_def_cfa_offset 24
 611              		.loc 2 70 0
 612 0006 0446     		mov	r4, r0
 613 0008 2B68     		ldr	r3, [r5]
 614 000a 0193     		str	r3, [sp, #4]
 615              	.LVL60:
 616              		.loc 2 74 0
 617 000c FFF7FEFF 		bl	measure_dist
 618              	.LVL61:
 619              		.loc 2 76 0
 620 0010 E369     		ldr	r3, [r4, #28]
 621 0012 B3F5FA7F 		cmp	r3, #500
 622 0016 0EDA     		bge	.L41
 623              		.loc 2 76 0 is_stmt 0 discriminator 1
 624 0018 2168     		ldr	r1, [r4]
 625 001a 6269     		ldr	r2, [r4, #20]
 626 001c A368     		ldr	r3, [r4, #8]
 627 001e B1F5FA7F 		cmp	r1, #500
ARM GAS  C:\Users\Admin\AppData\Local\Temp\ccjJNCUZ.s 			page 12


 628 0022 0ADA     		bge	.L42
 629              		.loc 2 78 0 is_stmt 1
 630 0024 B2F5E17F 		cmp	r2, #450
 631 0028 23DA     		bge	.L43
 632              		.loc 2 78 0 is_stmt 0 discriminator 1
 633 002a B3F5E17F 		cmp	r3, #450
 634 002e 2CDB     		blt	.L52
 635 0030 0222     		movs	r2, #2
 636              		.loc 2 84 0 is_stmt 1
 637 0032 1446     		mov	r4, r2
 638              	.LVL62:
 639 0034 09E0     		b	.L44
 640              	.LVL63:
 641              	.L41:
 642 0036 6269     		ldr	r2, [r4, #20]
 643 0038 A368     		ldr	r3, [r4, #8]
 644              	.L42:
 645              		.loc 2 97 0
 646 003a B2F5E17F 		cmp	r2, #450
 647 003e 0FDB     		blt	.L53
 648              		.loc 2 105 0
 649 0040 B3F5E17F 		cmp	r3, #450
 650 0044 12DA     		bge	.L50
 651 0046 0722     		movs	r2, #7
 652              		.loc 2 107 0
 653 0048 1446     		mov	r4, r2
 654              	.LVL64:
 655              	.L44:
 656              		.loc 2 115 0
 657 004a 1349     		ldr	r1, .L56+4
 658 004c 1348     		ldr	r0, .L56+8
 659 004e FFF7FEFF 		bl	chprintf.constprop.0
 660              	.LVL65:
 661              		.loc 2 118 0
 662 0052 019A     		ldr	r2, [sp, #4]
 663 0054 2B68     		ldr	r3, [r5]
 664 0056 9A42     		cmp	r2, r3
 665 0058 2046     		mov	r0, r4
 666 005a 19D1     		bne	.L54
 667 005c 03B0     		add	sp, sp, #12
 668              		.cfi_remember_state
 669              		.cfi_def_cfa_offset 12
 670              		@ sp needed
 671 005e 30BD     		pop	{r4, r5, pc}
 672              	.LVL66:
 673              	.L53:
 674              		.cfi_restore_state
 675              		.loc 2 97 0 discriminator 1
 676 0060 B3F5E17F 		cmp	r3, #450
 677 0064 0BDB     		blt	.L55
 678 0066 0622     		movs	r2, #6
 679              		.loc 2 103 0
 680 0068 1446     		mov	r4, r2
 681              	.LVL67:
 682 006a EEE7     		b	.L44
 683              	.LVL68:
 684              	.L50:
ARM GAS  C:\Users\Admin\AppData\Local\Temp\ccjJNCUZ.s 			page 13


 685 006c 0822     		movs	r2, #8
 686              		.loc 2 111 0
 687 006e 1446     		mov	r4, r2
 688              	.LVL69:
 689 0070 EBE7     		b	.L44
 690              	.LVL70:
 691              	.L43:
 692              		.loc 2 86 0
 693 0072 B3F5E17F 		cmp	r3, #450
 694 0076 05DA     		bge	.L48
 695 0078 0322     		movs	r2, #3
 696              		.loc 2 88 0
 697 007a 1446     		mov	r4, r2
 698              	.LVL71:
 699 007c E5E7     		b	.L44
 700              	.LVL72:
 701              	.L55:
 702              		.loc 2 97 0
 703 007e 0422     		movs	r2, #4
 704              		.loc 2 99 0
 705 0080 1446     		mov	r4, r2
 706              	.LVL73:
 707 0082 E2E7     		b	.L44
 708              	.LVL74:
 709              	.L48:
 710 0084 0522     		movs	r2, #5
 711              		.loc 2 92 0
 712 0086 1446     		mov	r4, r2
 713              	.LVL75:
 714 0088 DFE7     		b	.L44
 715              	.LVL76:
 716              	.L52:
 717              		.loc 2 78 0
 718 008a 0122     		movs	r2, #1
 719              		.loc 2 80 0
 720 008c 1446     		mov	r4, r2
 721              	.LVL77:
 722 008e DCE7     		b	.L44
 723              	.LVL78:
 724              	.L54:
 725              		.loc 2 118 0
 726 0090 FFF7FEFF 		bl	__stack_chk_fail
 727              	.LVL79:
 728              	.L57:
 729              		.align	2
 730              	.L56:
 731 0094 00000000 		.word	__stack_chk_guard
 732 0098 00000000 		.word	.LC16
 733 009c 00000000 		.word	SD3
 734              		.cfi_endproc
 735              	.LFE259:
 736              		.size	junction_detection, .-junction_detection
 737              		.section	.text.steps_to_cm,"ax",%progbits
 738              		.align	1
 739              		.p2align 4,,15
 740              		.global	steps_to_cm
 741              		.syntax unified
ARM GAS  C:\Users\Admin\AppData\Local\Temp\ccjJNCUZ.s 			page 14


 742              		.thumb
 743              		.thumb_func
 744              		.fpu fpv4-sp-d16
 745              		.type	steps_to_cm, %function
 746              	steps_to_cm:
 747              	.LFB265:
 748              		.loc 2 305 0
 749              		.cfi_startproc
 750              		@ args = 0, pretend = 0, frame = 8
 751              		@ frame_needed = 0, uses_anonymous_args = 0
 752              	.LVL80:
 753 0000 10B5     		push	{r4, lr}
 754              		.cfi_def_cfa_offset 8
 755              		.cfi_offset 4, -8
 756              		.cfi_offset 14, -4
 757 0002 0C49     		ldr	r1, .L62
 758              		.loc 2 307 0
 759 0004 0C4A     		ldr	r2, .L62+4
 760              		.loc 2 305 0
 761 0006 0B68     		ldr	r3, [r1]
 762 0008 82B0     		sub	sp, sp, #8
 763              		.cfi_def_cfa_offset 16
 764              		.loc 2 305 0
 765 000a 0193     		str	r3, [sp, #4]
 766              		.loc 2 307 0
 767 000c 00EB4003 		add	r3, r0, r0, lsl #1
 768 0010 00EB8300 		add	r0, r0, r3, lsl #2
 769              	.LVL81:
 770              		.loc 2 308 0
 771 0014 019C     		ldr	r4, [sp, #4]
 772 0016 0B68     		ldr	r3, [r1]
 773              		.loc 2 307 0
 774 0018 82FB0012 		smull	r1, r2, r2, r0
 775              		.loc 2 308 0
 776 001c 9C42     		cmp	r4, r3
 777              		.loc 2 307 0
 778 001e 4FEAE070 		asr	r0, r0, #31
 779 0022 C0EBA210 		rsb	r0, r0, r2, asr #6
 780              		.loc 2 308 0
 781 0026 02D1     		bne	.L61
 782 0028 40B2     		sxtb	r0, r0
 783 002a 02B0     		add	sp, sp, #8
 784              		.cfi_remember_state
 785              		.cfi_def_cfa_offset 8
 786              		@ sp needed
 787 002c 10BD     		pop	{r4, pc}
 788              	.L61:
 789              		.cfi_restore_state
 790 002e FFF7FEFF 		bl	__stack_chk_fail
 791              	.LVL82:
 792              	.L63:
 793 0032 00BF     		.align	2
 794              	.L62:
 795 0034 00000000 		.word	__stack_chk_guard
 796 0038 D34D6210 		.word	274877907
 797              		.cfi_endproc
 798              	.LFE265:
ARM GAS  C:\Users\Admin\AppData\Local\Temp\ccjJNCUZ.s 			page 15


 799              		.size	steps_to_cm, .-steps_to_cm
 800              		.section	.text.cm_to_steps,"ax",%progbits
 801              		.align	1
 802              		.p2align 4,,15
 803              		.global	cm_to_steps
 804              		.syntax unified
 805              		.thumb
 806              		.thumb_func
 807              		.fpu fpv4-sp-d16
 808              		.type	cm_to_steps, %function
 809              	cm_to_steps:
 810              	.LFB266:
 811              		.loc 2 310 0
 812              		.cfi_startproc
 813              		@ args = 0, pretend = 0, frame = 8
 814              		@ frame_needed = 0, uses_anonymous_args = 0
 815              	.LVL83:
 816 0000 10B5     		push	{r4, lr}
 817              		.cfi_def_cfa_offset 8
 818              		.cfi_offset 4, -8
 819              		.cfi_offset 14, -4
 820 0002 0C49     		ldr	r1, .L68
 821              		.loc 2 312 0
 822 0004 0C4A     		ldr	r2, .L68+4
 823              		.loc 2 310 0
 824 0006 0B68     		ldr	r3, [r1]
 825 0008 82B0     		sub	sp, sp, #8
 826              		.cfi_def_cfa_offset 16
 827              		.loc 2 310 0
 828 000a 0193     		str	r3, [sp, #4]
 829              		.loc 2 312 0
 830 000c 4FF47A73 		mov	r3, #1000
 831 0010 03FB00F0 		mul	r0, r3, r0
 832              	.LVL84:
 833              		.loc 2 313 0
 834 0014 019C     		ldr	r4, [sp, #4]
 835 0016 0B68     		ldr	r3, [r1]
 836              		.loc 2 312 0
 837 0018 82FB0012 		smull	r1, r2, r2, r0
 838              		.loc 2 313 0
 839 001c 9C42     		cmp	r4, r3
 840              		.loc 2 312 0
 841 001e 4FEAE070 		asr	r0, r0, #31
 842 0022 C0EBA200 		rsb	r0, r0, r2, asr #2
 843              		.loc 2 313 0
 844 0026 02D1     		bne	.L67
 845 0028 00B2     		sxth	r0, r0
 846 002a 02B0     		add	sp, sp, #8
 847              		.cfi_remember_state
 848              		.cfi_def_cfa_offset 8
 849              		@ sp needed
 850 002c 10BD     		pop	{r4, pc}
 851              	.L67:
 852              		.cfi_restore_state
 853 002e FFF7FEFF 		bl	__stack_chk_fail
 854              	.LVL85:
 855              	.L69:
ARM GAS  C:\Users\Admin\AppData\Local\Temp\ccjJNCUZ.s 			page 16


 856 0032 00BF     		.align	2
 857              	.L68:
 858 0034 00000000 		.word	__stack_chk_guard
 859 0038 4FECC44E 		.word	1321528399
 860              		.cfi_endproc
 861              	.LFE266:
 862              		.size	cm_to_steps, .-cm_to_steps
 863              		.section	.text.stop,"ax",%progbits
 864              		.align	1
 865              		.p2align 4,,15
 866              		.global	stop
 867              		.syntax unified
 868              		.thumb
 869              		.thumb_func
 870              		.fpu fpv4-sp-d16
 871              		.type	stop, %function
 872              	stop:
 873              	.LFB267:
 874              		.loc 2 315 0
 875              		.cfi_startproc
 876              		@ args = 0, pretend = 0, frame = 8
 877              		@ frame_needed = 0, uses_anonymous_args = 0
 878 0000 10B5     		push	{r4, lr}
 879              		.cfi_def_cfa_offset 8
 880              		.cfi_offset 4, -8
 881              		.cfi_offset 14, -4
 882 0002 1B4C     		ldr	r4, .L75
 883 0004 82B0     		sub	sp, sp, #8
 884              		.cfi_def_cfa_offset 16
 885              		.loc 2 315 0
 886 0006 2368     		ldr	r3, [r4]
 887 0008 0193     		str	r3, [sp, #4]
 888              		.loc 2 318 0
 889 000a 0121     		movs	r1, #1
 890 000c 0020     		movs	r0, #0
 891 000e FFF7FEFF 		bl	set_led
 892              	.LVL86:
 893              		.loc 2 319 0
 894 0012 0121     		movs	r1, #1
 895 0014 0846     		mov	r0, r1
 896 0016 FFF7FEFF 		bl	set_led
 897              	.LVL87:
 898              		.loc 2 320 0
 899 001a 0121     		movs	r1, #1
 900 001c 0220     		movs	r0, #2
 901 001e FFF7FEFF 		bl	set_led
 902              	.LVL88:
 903              		.loc 2 321 0
 904 0022 0121     		movs	r1, #1
 905 0024 0320     		movs	r0, #3
 906 0026 FFF7FEFF 		bl	set_led
 907              	.LVL89:
 908              		.loc 2 323 0
 909 002a 0020     		movs	r0, #0
 910 002c FFF7FEFF 		bl	left_motor_set_speed
 911              	.LVL90:
 912              		.loc 2 324 0
ARM GAS  C:\Users\Admin\AppData\Local\Temp\ccjJNCUZ.s 			page 17


 913 0030 0020     		movs	r0, #0
 914 0032 FFF7FEFF 		bl	right_motor_set_speed
 915              	.LVL91:
 916              		.loc 2 326 0
 917 0036 3220     		movs	r0, #50
 918 0038 FFF7FEFF 		bl	chThdSleep
 919              	.LVL92:
 920              		.loc 2 328 0
 921 003c 0021     		movs	r1, #0
 922 003e 0846     		mov	r0, r1
 923 0040 FFF7FEFF 		bl	set_led
 924              	.LVL93:
 925              		.loc 2 329 0
 926 0044 0021     		movs	r1, #0
 927 0046 0120     		movs	r0, #1
 928 0048 FFF7FEFF 		bl	set_led
 929              	.LVL94:
 930              		.loc 2 330 0
 931 004c 0021     		movs	r1, #0
 932 004e 0220     		movs	r0, #2
 933 0050 FFF7FEFF 		bl	set_led
 934              	.LVL95:
 935              		.loc 2 331 0
 936 0054 019A     		ldr	r2, [sp, #4]
 937 0056 2368     		ldr	r3, [r4]
 938 0058 9A42     		cmp	r2, r3
 939 005a 06D1     		bne	.L74
 940 005c 0021     		movs	r1, #0
 941 005e 0320     		movs	r0, #3
 942              		.loc 2 333 0
 943 0060 02B0     		add	sp, sp, #8
 944              		.cfi_remember_state
 945              		.cfi_def_cfa_offset 8
 946              		@ sp needed
 947 0062 BDE81040 		pop	{r4, lr}
 948              		.cfi_restore 14
 949              		.cfi_restore 4
 950              		.cfi_def_cfa_offset 0
 951              		.loc 2 331 0
 952 0066 FFF7FEBF 		b	set_led
 953              	.LVL96:
 954              	.L74:
 955              		.cfi_restore_state
 956 006a FFF7FEFF 		bl	__stack_chk_fail
 957              	.LVL97:
 958              	.L76:
 959 006e 00BF     		.align	2
 960              	.L75:
 961 0070 00000000 		.word	__stack_chk_guard
 962              		.cfi_endproc
 963              	.LFE267:
 964              		.size	stop, .-stop
 965              		.section	.text.turn_right_90,"ax",%progbits
 966              		.align	1
 967              		.p2align 4,,15
 968              		.global	turn_right_90
 969              		.syntax unified
ARM GAS  C:\Users\Admin\AppData\Local\Temp\ccjJNCUZ.s 			page 18


 970              		.thumb
 971              		.thumb_func
 972              		.fpu fpv4-sp-d16
 973              		.type	turn_right_90, %function
 974              	turn_right_90:
 975              	.LFB268:
 976              		.loc 2 335 0
 977              		.cfi_startproc
 978              		@ args = 0, pretend = 0, frame = 8
 979              		@ frame_needed = 0, uses_anonymous_args = 0
 980 0000 10B5     		push	{r4, lr}
 981              		.cfi_def_cfa_offset 8
 982              		.cfi_offset 4, -8
 983              		.cfi_offset 14, -4
 984 0002 134C     		ldr	r4, .L84
 985 0004 82B0     		sub	sp, sp, #8
 986              		.cfi_def_cfa_offset 16
 987              		.loc 2 337 0
 988 0006 0121     		movs	r1, #1
 989              		.loc 2 335 0
 990 0008 2368     		ldr	r3, [r4]
 991 000a 0193     		str	r3, [sp, #4]
 992              		.loc 2 337 0
 993 000c 0846     		mov	r0, r1
 994 000e FFF7FEFF 		bl	set_led
 995              	.LVL98:
 996              		.loc 2 341 0
 997 0012 0020     		movs	r0, #0
 998 0014 FFF7FEFF 		bl	left_motor_set_pos
 999              	.LVL99:
 1000              		.loc 2 342 0
 1001 0018 4FF4FA70 		mov	r0, #500
 1002 001c FFF7FEFF 		bl	left_motor_set_speed
 1003              	.LVL100:
 1004              		.loc 2 343 0
 1005 0020 0C48     		ldr	r0, .L84+4
 1006 0022 FFF7FEFF 		bl	right_motor_set_speed
 1007              	.LVL101:
 1008              	.L78:
 1009              		.loc 2 347 0
 1010 0026 FFF7FEFF 		bl	left_motor_get_pos
 1011              	.LVL102:
 1012              		.loc 2 345 0
 1013 002a B0F5A37F 		cmp	r0, #326
 1014 002e FADD     		ble	.L78
 1015              		.loc 2 349 0
 1016 0030 0021     		movs	r1, #0
 1017 0032 0120     		movs	r0, #1
 1018              	.LVL103:
 1019 0034 FFF7FEFF 		bl	set_led
 1020              	.LVL104:
 1021              		.loc 2 350 0
 1022 0038 019A     		ldr	r2, [sp, #4]
 1023 003a 2368     		ldr	r3, [r4]
 1024 003c 9A42     		cmp	r2, r3
 1025 003e 04D1     		bne	.L83
 1026              		.loc 2 351 0
ARM GAS  C:\Users\Admin\AppData\Local\Temp\ccjJNCUZ.s 			page 19


 1027 0040 02B0     		add	sp, sp, #8
 1028              		.cfi_remember_state
 1029              		.cfi_def_cfa_offset 8
 1030              		@ sp needed
 1031 0042 BDE81040 		pop	{r4, lr}
 1032              		.cfi_restore 14
 1033              		.cfi_restore 4
 1034              		.cfi_def_cfa_offset 0
 1035              		.loc 2 350 0
 1036 0046 FFF7FEBF 		b	stop
 1037              	.LVL105:
 1038              	.L83:
 1039              		.cfi_restore_state
 1040 004a FFF7FEFF 		bl	__stack_chk_fail
 1041              	.LVL106:
 1042              	.L85:
 1043 004e 00BF     		.align	2
 1044              	.L84:
 1045 0050 00000000 		.word	__stack_chk_guard
 1046 0054 0CFEFFFF 		.word	-500
 1047              		.cfi_endproc
 1048              	.LFE268:
 1049              		.size	turn_right_90, .-turn_right_90
 1050              		.section	.text.turn_left_90,"ax",%progbits
 1051              		.align	1
 1052              		.p2align 4,,15
 1053              		.global	turn_left_90
 1054              		.syntax unified
 1055              		.thumb
 1056              		.thumb_func
 1057              		.fpu fpv4-sp-d16
 1058              		.type	turn_left_90, %function
 1059              	turn_left_90:
 1060              	.LFB269:
 1061              		.loc 2 354 0
 1062              		.cfi_startproc
 1063              		@ args = 0, pretend = 0, frame = 8
 1064              		@ frame_needed = 0, uses_anonymous_args = 0
 1065 0000 10B5     		push	{r4, lr}
 1066              		.cfi_def_cfa_offset 8
 1067              		.cfi_offset 4, -8
 1068              		.cfi_offset 14, -4
 1069 0002 134C     		ldr	r4, .L93
 1070 0004 82B0     		sub	sp, sp, #8
 1071              		.cfi_def_cfa_offset 16
 1072              		.loc 2 354 0
 1073 0006 2368     		ldr	r3, [r4]
 1074 0008 0193     		str	r3, [sp, #4]
 1075              		.loc 2 356 0
 1076 000a 0121     		movs	r1, #1
 1077 000c 0320     		movs	r0, #3
 1078 000e FFF7FEFF 		bl	set_led
 1079              	.LVL107:
 1080              		.loc 2 360 0
 1081 0012 0020     		movs	r0, #0
 1082 0014 FFF7FEFF 		bl	right_motor_set_pos
 1083              	.LVL108:
ARM GAS  C:\Users\Admin\AppData\Local\Temp\ccjJNCUZ.s 			page 20


 1084              		.loc 2 361 0
 1085 0018 0E48     		ldr	r0, .L93+4
 1086 001a FFF7FEFF 		bl	left_motor_set_speed
 1087              	.LVL109:
 1088              		.loc 2 362 0
 1089 001e 4FF4FA70 		mov	r0, #500
 1090 0022 FFF7FEFF 		bl	right_motor_set_speed
 1091              	.LVL110:
 1092              	.L87:
 1093              		.loc 2 366 0
 1094 0026 FFF7FEFF 		bl	right_motor_get_pos
 1095              	.LVL111:
 1096              		.loc 2 364 0
 1097 002a B0F5A37F 		cmp	r0, #326
 1098 002e FADD     		ble	.L87
 1099              		.loc 2 369 0
 1100 0030 0021     		movs	r1, #0
 1101 0032 0320     		movs	r0, #3
 1102              	.LVL112:
 1103 0034 FFF7FEFF 		bl	set_led
 1104              	.LVL113:
 1105              		.loc 2 370 0
 1106 0038 019A     		ldr	r2, [sp, #4]
 1107 003a 2368     		ldr	r3, [r4]
 1108 003c 9A42     		cmp	r2, r3
 1109 003e 04D1     		bne	.L92
 1110              		.loc 2 371 0
 1111 0040 02B0     		add	sp, sp, #8
 1112              		.cfi_remember_state
 1113              		.cfi_def_cfa_offset 8
 1114              		@ sp needed
 1115 0042 BDE81040 		pop	{r4, lr}
 1116              		.cfi_restore 14
 1117              		.cfi_restore 4
 1118              		.cfi_def_cfa_offset 0
 1119              		.loc 2 370 0
 1120 0046 FFF7FEBF 		b	stop
 1121              	.LVL114:
 1122              	.L92:
 1123              		.cfi_restore_state
 1124 004a FFF7FEFF 		bl	__stack_chk_fail
 1125              	.LVL115:
 1126              	.L94:
 1127 004e 00BF     		.align	2
 1128              	.L93:
 1129 0050 00000000 		.word	__stack_chk_guard
 1130 0054 0CFEFFFF 		.word	-500
 1131              		.cfi_endproc
 1132              	.LFE269:
 1133              		.size	turn_left_90, .-turn_left_90
 1134              		.section	.text.go_forward_regulator,"ax",%progbits
 1135              		.align	1
 1136              		.p2align 4,,15
 1137              		.global	go_forward_regulator
 1138              		.syntax unified
 1139              		.thumb
 1140              		.thumb_func
ARM GAS  C:\Users\Admin\AppData\Local\Temp\ccjJNCUZ.s 			page 21


 1141              		.fpu fpv4-sp-d16
 1142              		.type	go_forward_regulator, %function
 1143              	go_forward_regulator:
 1144              	.LFB270:
 1145              		.loc 2 373 0
 1146              		.cfi_startproc
 1147              		@ args = 0, pretend = 0, frame = 8
 1148              		@ frame_needed = 0, uses_anonymous_args = 0
 1149 0000 10B5     		push	{r4, lr}
 1150              		.cfi_def_cfa_offset 8
 1151              		.cfi_offset 4, -8
 1152              		.cfi_offset 14, -4
 1153 0002 114C     		ldr	r4, .L100
 1154 0004 82B0     		sub	sp, sp, #8
 1155              		.cfi_def_cfa_offset 16
 1156              		.loc 2 373 0
 1157 0006 2368     		ldr	r3, [r4]
 1158 0008 0193     		str	r3, [sp, #4]
 1159              		.loc 2 375 0
 1160 000a 0220     		movs	r0, #2
 1161 000c FFF7FEFF 		bl	get_prox
 1162              	.LVL116:
 1163 0010 0520     		movs	r0, #5
 1164 0012 FFF7FEFF 		bl	get_prox
 1165              	.LVL117:
 1166              		.loc 2 376 0
 1167 0016 0121     		movs	r1, #1
 1168 0018 0020     		movs	r0, #0
 1169 001a FFF7FEFF 		bl	set_led
 1170              	.LVL118:
 1171              		.loc 2 379 0
 1172 001e 4FF4FA70 		mov	r0, #500
 1173 0022 FFF7FEFF 		bl	left_motor_set_speed
 1174              	.LVL119:
 1175              		.loc 2 380 0
 1176 0026 4FF4FA70 		mov	r0, #500
 1177 002a FFF7FEFF 		bl	right_motor_set_speed
 1178              	.LVL120:
 1179              		.loc 2 388 0
 1180 002e 019A     		ldr	r2, [sp, #4]
 1181 0030 2368     		ldr	r3, [r4]
 1182 0032 9A42     		cmp	r2, r3
 1183 0034 06D1     		bne	.L99
 1184 0036 0021     		movs	r1, #0
 1185 0038 0120     		movs	r0, #1
 1186              		.loc 2 389 0
 1187 003a 02B0     		add	sp, sp, #8
 1188              		.cfi_remember_state
 1189              		.cfi_def_cfa_offset 8
 1190              		@ sp needed
 1191 003c BDE81040 		pop	{r4, lr}
 1192              		.cfi_restore 14
 1193              		.cfi_restore 4
 1194              		.cfi_def_cfa_offset 0
 1195              		.loc 2 388 0
 1196 0040 FFF7FEBF 		b	set_led
 1197              	.LVL121:
ARM GAS  C:\Users\Admin\AppData\Local\Temp\ccjJNCUZ.s 			page 22


 1198              	.L99:
 1199              		.cfi_restore_state
 1200 0044 FFF7FEFF 		bl	__stack_chk_fail
 1201              	.LVL122:
 1202              	.L101:
 1203              		.align	2
 1204              	.L100:
 1205 0048 00000000 		.word	__stack_chk_guard
 1206              		.cfi_endproc
 1207              	.LFE270:
 1208              		.size	go_forward_regulator, .-go_forward_regulator
 1209              		.section	.text.go_forward,"ax",%progbits
 1210              		.align	1
 1211              		.p2align 4,,15
 1212              		.global	go_forward
 1213              		.syntax unified
 1214              		.thumb
 1215              		.thumb_func
 1216              		.fpu fpv4-sp-d16
 1217              		.type	go_forward, %function
 1218              	go_forward:
 1219              	.LFB271:
 1220              		.loc 2 391 0
 1221              		.cfi_startproc
 1222              		@ args = 0, pretend = 0, frame = 8
 1223              		@ frame_needed = 0, uses_anonymous_args = 0
 1224 0000 10B5     		push	{r4, lr}
 1225              		.cfi_def_cfa_offset 8
 1226              		.cfi_offset 4, -8
 1227              		.cfi_offset 14, -4
 1228 0002 0E4C     		ldr	r4, .L107
 1229 0004 82B0     		sub	sp, sp, #8
 1230              		.cfi_def_cfa_offset 16
 1231              		.loc 2 391 0
 1232 0006 2368     		ldr	r3, [r4]
 1233 0008 0193     		str	r3, [sp, #4]
 1234              		.loc 2 392 0
 1235 000a 0121     		movs	r1, #1
 1236 000c 0020     		movs	r0, #0
 1237 000e FFF7FEFF 		bl	set_led
 1238              	.LVL123:
 1239              		.loc 2 393 0
 1240 0012 4FF4FA70 		mov	r0, #500
 1241 0016 FFF7FEFF 		bl	left_motor_set_speed
 1242              	.LVL124:
 1243              		.loc 2 394 0
 1244 001a 4FF4FA70 		mov	r0, #500
 1245 001e FFF7FEFF 		bl	right_motor_set_speed
 1246              	.LVL125:
 1247              		.loc 2 395 0
 1248 0022 019A     		ldr	r2, [sp, #4]
 1249 0024 2368     		ldr	r3, [r4]
 1250 0026 9A42     		cmp	r2, r3
 1251 0028 06D1     		bne	.L106
 1252 002a 0021     		movs	r1, #0
 1253 002c 0120     		movs	r0, #1
 1254              		.loc 2 396 0
ARM GAS  C:\Users\Admin\AppData\Local\Temp\ccjJNCUZ.s 			page 23


 1255 002e 02B0     		add	sp, sp, #8
 1256              		.cfi_remember_state
 1257              		.cfi_def_cfa_offset 8
 1258              		@ sp needed
 1259 0030 BDE81040 		pop	{r4, lr}
 1260              		.cfi_restore 14
 1261              		.cfi_restore 4
 1262              		.cfi_def_cfa_offset 0
 1263              		.loc 2 395 0
 1264 0034 FFF7FEBF 		b	set_led
 1265              	.LVL126:
 1266              	.L106:
 1267              		.cfi_restore_state
 1268 0038 FFF7FEFF 		bl	__stack_chk_fail
 1269              	.LVL127:
 1270              	.L108:
 1271              		.align	2
 1272              	.L107:
 1273 003c 00000000 		.word	__stack_chk_guard
 1274              		.cfi_endproc
 1275              	.LFE271:
 1276              		.size	go_forward, .-go_forward
 1277              		.section	.text.half_turn,"ax",%progbits
 1278              		.align	1
 1279              		.p2align 4,,15
 1280              		.global	half_turn
 1281              		.syntax unified
 1282              		.thumb
 1283              		.thumb_func
 1284              		.fpu fpv4-sp-d16
 1285              		.type	half_turn, %function
 1286              	half_turn:
 1287              	.LFB272:
 1288              		.loc 2 398 0
 1289              		.cfi_startproc
 1290              		@ args = 0, pretend = 0, frame = 8
 1291              		@ frame_needed = 0, uses_anonymous_args = 0
 1292 0000 30B5     		push	{r4, r5, lr}
 1293              		.cfi_def_cfa_offset 12
 1294              		.cfi_offset 4, -12
 1295              		.cfi_offset 5, -8
 1296              		.cfi_offset 14, -4
 1297 0002 134D     		ldr	r5, .L116
 1298 0004 83B0     		sub	sp, sp, #12
 1299              		.cfi_def_cfa_offset 24
 1300              		.loc 2 398 0
 1301 0006 2B68     		ldr	r3, [r5]
 1302 0008 0193     		str	r3, [sp, #4]
 1303              		.loc 2 400 0
 1304 000a 0121     		movs	r1, #1
 1305 000c 0220     		movs	r0, #2
 1306 000e FFF7FEFF 		bl	set_led
 1307              	.LVL128:
 1308              		.loc 2 404 0
 1309 0012 0020     		movs	r0, #0
 1310 0014 FFF7FEFF 		bl	right_motor_set_pos
 1311              	.LVL129:
ARM GAS  C:\Users\Admin\AppData\Local\Temp\ccjJNCUZ.s 			page 24


 1312              		.loc 2 405 0
 1313 0018 0E48     		ldr	r0, .L116+4
 1314 001a FFF7FEFF 		bl	left_motor_set_speed
 1315              	.LVL130:
 1316              		.loc 2 406 0
 1317 001e 4FF4FA70 		mov	r0, #500
 1318 0022 FFF7FEFF 		bl	right_motor_set_speed
 1319              	.LVL131:
 1320              		.loc 2 408 0
 1321 0026 40F28D24 		movw	r4, #653
 1322              	.LVL132:
 1323              	.L110:
 1324              		.loc 2 410 0
 1325 002a FFF7FEFF 		bl	right_motor_get_pos
 1326              	.LVL133:
 1327              		.loc 2 408 0
 1328 002e A042     		cmp	r0, r4
 1329 0030 FBDD     		ble	.L110
 1330              		.loc 2 413 0
 1331 0032 0021     		movs	r1, #0
 1332 0034 0220     		movs	r0, #2
 1333              	.LVL134:
 1334 0036 FFF7FEFF 		bl	set_led
 1335              	.LVL135:
 1336              		.loc 2 414 0
 1337 003a 019A     		ldr	r2, [sp, #4]
 1338 003c 2B68     		ldr	r3, [r5]
 1339 003e 9A42     		cmp	r2, r3
 1340 0040 04D1     		bne	.L115
 1341              		.loc 2 415 0
 1342 0042 03B0     		add	sp, sp, #12
 1343              		.cfi_remember_state
 1344              		.cfi_def_cfa_offset 12
 1345              		@ sp needed
 1346 0044 BDE83040 		pop	{r4, r5, lr}
 1347              		.cfi_restore 14
 1348              		.cfi_restore 5
 1349              		.cfi_restore 4
 1350              		.cfi_def_cfa_offset 0
 1351              		.loc 2 414 0
 1352 0048 FFF7FEBF 		b	stop
 1353              	.LVL136:
 1354              	.L115:
 1355              		.cfi_restore_state
 1356 004c FFF7FEFF 		bl	__stack_chk_fail
 1357              	.LVL137:
 1358              	.L117:
 1359              		.align	2
 1360              	.L116:
 1361 0050 00000000 		.word	__stack_chk_guard
 1362 0054 0CFEFFFF 		.word	-500
 1363              		.cfi_endproc
 1364              	.LFE272:
 1365              		.size	half_turn, .-half_turn
 1366              		.section	.text.move_command,"ax",%progbits
 1367              		.align	1
 1368              		.p2align 4,,15
ARM GAS  C:\Users\Admin\AppData\Local\Temp\ccjJNCUZ.s 			page 25


 1369              		.global	move_command
 1370              		.syntax unified
 1371              		.thumb
 1372              		.thumb_func
 1373              		.fpu fpv4-sp-d16
 1374              		.type	move_command, %function
 1375              	move_command:
 1376              	.LFB260:
 1377              		.loc 2 121 0
 1378              		.cfi_startproc
 1379              		@ args = 0, pretend = 0, frame = 8
 1380              		@ frame_needed = 0, uses_anonymous_args = 0
 1381              	.LVL138:
 1382 0000 10B5     		push	{r4, lr}
 1383              		.cfi_def_cfa_offset 8
 1384              		.cfi_offset 4, -8
 1385              		.cfi_offset 14, -4
 1386              		.loc 2 123 0
 1387 0002 904B     		ldr	r3, .L197
 1388              		.loc 2 121 0
 1389 0004 904C     		ldr	r4, .L197+4
 1390              		.loc 2 123 0
 1391 0006 1B78     		ldrb	r3, [r3]	@ zero_extendqisi2
 1392              		.loc 2 121 0
 1393 0008 2268     		ldr	r2, [r4]
 1394 000a 82B0     		sub	sp, sp, #8
 1395              		.cfi_def_cfa_offset 16
 1396              		.loc 2 123 0
 1397 000c 042B     		cmp	r3, #4
 1398              		.loc 2 121 0
 1399 000e 0192     		str	r2, [sp, #4]
 1400              		.loc 2 123 0
 1401 0010 00F09680 		beq	.L193
 1402              		.loc 2 165 0
 1403 0014 0C2B     		cmp	r3, #12
 1404 0016 46D0     		beq	.L194
 1405              	.L120:
 1406              		.loc 2 212 0
 1407 0018 0828     		cmp	r0, #8
 1408 001a 23D8     		bhi	.L118
 1409 001c DFE810F0 		tbh	[pc, r0, lsl #1]
 1410              	.L161:
 1411 0020 F900     		.2byte	(.L160-.L161)/2
 1412 0022 2200     		.2byte	(.L118-.L161)/2
 1413 0024 2200     		.2byte	(.L118-.L161)/2
 1414 0026 2200     		.2byte	(.L118-.L161)/2
 1415 0028 2200     		.2byte	(.L118-.L161)/2
 1416 002a 0601     		.2byte	(.L162-.L161)/2
 1417 002c 1100     		.2byte	(.L163-.L161)/2
 1418 002e 3100     		.2byte	(.L164-.L161)/2
 1419 0030 EE00     		.2byte	(.L165-.L161)/2
 1420              	.LVL139:
 1421              		.p2align 1
 1422              	.L168:
 1423              		.loc 2 224 0 discriminator 1
 1424 0032 0020     		movs	r0, #0
 1425 0034 FFF7FEFF 		bl	get_prox
ARM GAS  C:\Users\Admin\AppData\Local\Temp\ccjJNCUZ.s 			page 26


 1426              	.LVL140:
 1427 0038 B0F5FA7F 		cmp	r0, #500
 1428 003c 07DA     		bge	.L171
 1429              		.loc 2 225 0
 1430 003e FFF7FEFF 		bl	go_forward
 1431              	.LVL141:
 1432              	.L163:
 1433              		.loc 2 224 0
 1434 0042 0720     		movs	r0, #7
 1435 0044 FFF7FEFF 		bl	get_prox
 1436              	.LVL142:
 1437 0048 B0F5FA7F 		cmp	r0, #500
 1438 004c F1DB     		blt	.L168
 1439              	.L171:
 1440              		.loc 2 227 0
 1441 004e FFF7FEFF 		bl	turn_left_90
 1442              	.LVL143:
 1443              		.loc 2 228 0
 1444 0052 01E0     		b	.L169
 1445              	.L172:
 1446              		.loc 2 229 0
 1447 0054 FFF7FEFF 		bl	go_forward
 1448              	.LVL144:
 1449              	.L169:
 1450              		.loc 2 228 0
 1451 0058 0520     		movs	r0, #5
 1452 005a FFF7FEFF 		bl	get_prox
 1453              	.LVL145:
 1454 005e B0F5E17F 		cmp	r0, #450
 1455 0062 F7DB     		blt	.L172
 1456              	.L118:
 1457              		.loc 2 251 0
 1458 0064 019A     		ldr	r2, [sp, #4]
 1459 0066 2368     		ldr	r3, [r4]
 1460 0068 9A42     		cmp	r2, r3
 1461 006a 40F0E880 		bne	.L190
 1462 006e 02B0     		add	sp, sp, #8
 1463              		.cfi_remember_state
 1464              		.cfi_def_cfa_offset 8
 1465              		@ sp needed
 1466 0070 10BD     		pop	{r4, pc}
 1467              	.L173:
 1468              		.cfi_restore_state
 1469              		.loc 2 234 0 discriminator 1
 1470 0072 0020     		movs	r0, #0
 1471 0074 FFF7FEFF 		bl	get_prox
 1472              	.LVL146:
 1473 0078 B0F5FA7F 		cmp	r0, #500
 1474 007c 07DA     		bge	.L176
 1475              		.loc 2 235 0
 1476 007e FFF7FEFF 		bl	go_forward
 1477              	.LVL147:
 1478              	.L164:
 1479              		.loc 2 234 0
 1480 0082 0720     		movs	r0, #7
 1481 0084 FFF7FEFF 		bl	get_prox
 1482              	.LVL148:
ARM GAS  C:\Users\Admin\AppData\Local\Temp\ccjJNCUZ.s 			page 27


 1483 0088 B0F5FA7F 		cmp	r0, #500
 1484 008c F1DB     		blt	.L173
 1485              	.L176:
 1486              		.loc 2 237 0
 1487 008e FFF7FEFF 		bl	turn_right_90
 1488              	.LVL149:
 1489              		.loc 2 238 0
 1490 0092 01E0     		b	.L174
 1491              	.L177:
 1492              		.loc 2 239 0
 1493 0094 FFF7FEFF 		bl	go_forward
 1494              	.LVL150:
 1495              	.L174:
 1496              		.loc 2 238 0
 1497 0098 0220     		movs	r0, #2
 1498 009a FFF7FEFF 		bl	get_prox
 1499              	.LVL151:
 1500 009e B0F5E17F 		cmp	r0, #450
 1501 00a2 F7DB     		blt	.L177
 1502 00a4 DEE7     		b	.L118
 1503              	.LVL152:
 1504              	.L194:
 1505              	.LBB4:
 1506              		.loc 2 169 0
 1507 00a6 431E     		subs	r3, r0, #1
 1508 00a8 032B     		cmp	r3, #3
 1509 00aa B5D8     		bhi	.L120
 1510 00ac DFE803F0 		tbb	[pc, r3]
 1511              	.L144:
 1512 00b0 0A       		.byte	(.L143-.L144)/2
 1513 00b1 32       		.byte	(.L145-.L144)/2
 1514 00b2 26       		.byte	(.L146-.L144)/2
 1515 00b3 1C       		.byte	(.L147-.L144)/2
 1516              	.LVL153:
 1517              		.p2align 1
 1518              	.L148:
 1519              		.loc 2 173 0 discriminator 1
 1520 00b4 0320     		movs	r0, #3
 1521 00b6 FFF7FEFF 		bl	get_prox
 1522              	.LVL154:
 1523 00ba B0F5C87F 		cmp	r0, #400
 1524 00be 07DD     		ble	.L151
 1525              		.loc 2 174 0
 1526 00c0 FFF7FEFF 		bl	go_forward
 1527              	.LVL155:
 1528              	.L143:
 1529              		.loc 2 173 0
 1530 00c4 0420     		movs	r0, #4
 1531 00c6 FFF7FEFF 		bl	get_prox
 1532              	.LVL156:
 1533 00ca B0F5C87F 		cmp	r0, #400
 1534 00ce F1DC     		bgt	.L148
 1535              	.L151:
 1536              		.loc 2 176 0
 1537 00d0 FFF7FEFF 		bl	stop
 1538              	.LVL157:
 1539              		.loc 2 177 0
ARM GAS  C:\Users\Admin\AppData\Local\Temp\ccjJNCUZ.s 			page 28


 1540 00d4 5D49     		ldr	r1, .L197+8
 1541 00d6 26E0     		b	.L191
 1542              	.L156:
 1543              		.loc 2 200 0 discriminator 1
 1544 00d8 0020     		movs	r0, #0
 1545 00da FFF7FEFF 		bl	get_prox
 1546              	.LVL158:
 1547 00de B0F5FA7F 		cmp	r0, #500
 1548 00e2 07DA     		bge	.L159
 1549              		.loc 2 201 0
 1550 00e4 FFF7FEFF 		bl	go_forward
 1551              	.LVL159:
 1552              	.L147:
 1553              		.loc 2 200 0
 1554 00e8 0720     		movs	r0, #7
 1555 00ea FFF7FEFF 		bl	get_prox
 1556              	.LVL160:
 1557 00ee B0F5FA7F 		cmp	r0, #500
 1558 00f2 F1DB     		blt	.L156
 1559              	.L159:
 1560              		.loc 2 203 0
 1561 00f4 5649     		ldr	r1, .L197+12
 1562 00f6 16E0     		b	.L191
 1563              	.L154:
 1564              		.loc 2 192 0
 1565 00f8 FFF7FEFF 		bl	go_forward
 1566              	.LVL161:
 1567              	.L146:
 1568              		.loc 2 191 0
 1569 00fc 0320     		movs	r0, #3
 1570 00fe FFF7FEFF 		bl	get_prox
 1571              	.LVL162:
 1572 0102 B0F5C87F 		cmp	r0, #400
 1573 0106 F7DC     		bgt	.L154
 1574              		.loc 2 194 0
 1575 0108 FFF7FEFF 		bl	stop
 1576              	.LVL163:
 1577              		.loc 2 195 0
 1578 010c 5149     		ldr	r1, .L197+16
 1579 010e 0AE0     		b	.L191
 1580              	.L152:
 1581              		.loc 2 183 0
 1582 0110 FFF7FEFF 		bl	go_forward
 1583              	.LVL164:
 1584              	.L145:
 1585              		.loc 2 182 0
 1586 0114 0420     		movs	r0, #4
 1587 0116 FFF7FEFF 		bl	get_prox
 1588              	.LVL165:
 1589 011a B0F5C87F 		cmp	r0, #400
 1590 011e F7DC     		bgt	.L152
 1591              		.loc 2 185 0
 1592 0120 FFF7FEFF 		bl	stop
 1593              	.LVL166:
 1594              		.loc 2 186 0
 1595 0124 4C49     		ldr	r1, .L197+20
 1596              	.L191:
ARM GAS  C:\Users\Admin\AppData\Local\Temp\ccjJNCUZ.s 			page 29


 1597              		.loc 2 203 0
 1598 0126 4D48     		ldr	r0, .L197+24
 1599 0128 FFF7FEFF 		bl	chprintf.constprop.0
 1600              	.LVL167:
 1601              		.loc 2 204 0
 1602 012c 019A     		ldr	r2, [sp, #4]
 1603 012e 2368     		ldr	r3, [r4]
 1604 0130 9A42     		cmp	r2, r3
 1605 0132 40F08480 		bne	.L190
 1606              	.LBE4:
 1607              		.loc 2 251 0
 1608 0136 02B0     		add	sp, sp, #8
 1609              		.cfi_remember_state
 1610              		.cfi_def_cfa_offset 8
 1611              		@ sp needed
 1612 0138 BDE81040 		pop	{r4, lr}
 1613              		.cfi_restore 14
 1614              		.cfi_restore 4
 1615              		.cfi_def_cfa_offset 0
 1616              	.LBB5:
 1617              		.loc 2 204 0
 1618 013c FFF7FEBF 		b	wait_receive_order
 1619              	.LVL168:
 1620              	.L193:
 1621              		.cfi_restore_state
 1622              	.LBE5:
 1623              		.loc 2 125 0
 1624 0140 431E     		subs	r3, r0, #1
 1625 0142 032B     		cmp	r3, #3
 1626 0144 3FF668AF 		bhi	.L120
 1627 0148 DFE803F0 		tbb	[pc, r3]
 1628              	.L122:
 1629 014c 0A       		.byte	(.L121-.L122)/2
 1630 014d 5A       		.byte	(.L192-.L122)/2
 1631 014e 3F       		.byte	(.L124-.L122)/2
 1632 014f 2B       		.byte	(.L125-.L122)/2
 1633              	.LVL169:
 1634              		.p2align 1
 1635              	.L126:
 1636              		.loc 2 128 0 discriminator 1
 1637 0150 0320     		movs	r0, #3
 1638 0152 FFF7FEFF 		bl	get_prox
 1639              	.LVL170:
 1640 0156 B0F5C87F 		cmp	r0, #400
 1641 015a 07DD     		ble	.L129
 1642              		.loc 2 129 0
 1643 015c FFF7FEFF 		bl	go_forward
 1644              	.LVL171:
 1645              	.L121:
 1646              		.loc 2 128 0
 1647 0160 0420     		movs	r0, #4
 1648 0162 FFF7FEFF 		bl	get_prox
 1649              	.LVL172:
 1650 0166 B0F5C87F 		cmp	r0, #400
 1651 016a F1DC     		bgt	.L126
 1652              	.L129:
 1653              		.loc 2 131 0
ARM GAS  C:\Users\Admin\AppData\Local\Temp\ccjJNCUZ.s 			page 30


 1654 016c FFF7FEFF 		bl	turn_right_90
 1655              	.LVL173:
 1656              		.loc 2 132 0
 1657 0170 08E0     		b	.L127
 1658              	.L195:
 1659              		.loc 2 132 0 is_stmt 0 discriminator 1
 1660 0172 0220     		movs	r0, #2
 1661 0174 FFF7FEFF 		bl	get_prox
 1662              	.LVL174:
 1663 0178 B0F5E17F 		cmp	r0, #450
 1664 017c BFF672AF 		bge	.L118
 1665              		.loc 2 133 0 is_stmt 1
 1666 0180 FFF7FEFF 		bl	go_forward
 1667              	.LVL175:
 1668              	.L127:
 1669              		.loc 2 132 0
 1670 0184 0520     		movs	r0, #5
 1671 0186 FFF7FEFF 		bl	get_prox
 1672              	.LVL176:
 1673 018a B0F5E17F 		cmp	r0, #450
 1674 018e F0DB     		blt	.L195
 1675 0190 68E7     		b	.L118
 1676              	.L138:
 1677              		.loc 2 152 0 discriminator 1
 1678 0192 0020     		movs	r0, #0
 1679 0194 FFF7FEFF 		bl	get_prox
 1680              	.LVL177:
 1681 0198 B0F5FA7F 		cmp	r0, #500
 1682 019c 07DA     		bge	.L141
 1683              		.loc 2 153 0
 1684 019e FFF7FEFF 		bl	go_forward
 1685              	.LVL178:
 1686              	.L125:
 1687              		.loc 2 152 0
 1688 01a2 0720     		movs	r0, #7
 1689 01a4 FFF7FEFF 		bl	get_prox
 1690              	.LVL179:
 1691 01a8 B0F5FA7F 		cmp	r0, #500
 1692 01ac F1DB     		blt	.L138
 1693              	.L141:
 1694              		.loc 2 155 0
 1695 01ae FFF7FEFF 		bl	turn_right_90
 1696              	.LVL180:
 1697              		.loc 2 156 0
 1698 01b2 01E0     		b	.L139
 1699              	.L142:
 1700              		.loc 2 157 0
 1701 01b4 FFF7FEFF 		bl	go_forward
 1702              	.LVL181:
 1703              	.L139:
 1704              		.loc 2 156 0
 1705 01b8 0220     		movs	r0, #2
 1706 01ba FFF7FEFF 		bl	get_prox
 1707              	.LVL182:
 1708 01be B0F5E17F 		cmp	r0, #450
 1709 01c2 F7DB     		blt	.L142
 1710 01c4 4EE7     		b	.L118
ARM GAS  C:\Users\Admin\AppData\Local\Temp\ccjJNCUZ.s 			page 31


 1711              	.L135:
 1712              		.loc 2 143 0
 1713 01c6 FFF7FEFF 		bl	go_forward
 1714              	.LVL183:
 1715              	.L124:
 1716              		.loc 2 142 0
 1717 01ca 0320     		movs	r0, #3
 1718 01cc FFF7FEFF 		bl	get_prox
 1719              	.LVL184:
 1720 01d0 B0F5C87F 		cmp	r0, #400
 1721 01d4 F7DC     		bgt	.L135
 1722              		.loc 2 145 0
 1723 01d6 FFF7FEFF 		bl	turn_right_90
 1724              	.LVL185:
 1725              		.loc 2 146 0
 1726 01da 08E0     		b	.L136
 1727              	.L196:
 1728              		.loc 2 146 0 is_stmt 0 discriminator 1
 1729 01dc 0220     		movs	r0, #2
 1730 01de FFF7FEFF 		bl	get_prox
 1731              	.LVL186:
 1732 01e2 B0F5E17F 		cmp	r0, #450
 1733 01e6 BFF63DAF 		bge	.L118
 1734              		.loc 2 147 0 is_stmt 1
 1735 01ea FFF7FEFF 		bl	go_forward
 1736              	.LVL187:
 1737              	.L136:
 1738              		.loc 2 146 0
 1739 01ee 0520     		movs	r0, #5
 1740 01f0 FFF7FEFF 		bl	get_prox
 1741              	.LVL188:
 1742 01f4 B0F5E17F 		cmp	r0, #450
 1743 01f8 F0DB     		blt	.L196
 1744 01fa 33E7     		b	.L118
 1745              	.LVL189:
 1746              	.L165:
 1747              		.loc 2 244 0
 1748 01fc FFF7FEFF 		bl	half_turn
 1749              	.LVL190:
 1750              	.L192:
 1751              		.loc 2 245 0
 1752 0200 019A     		ldr	r2, [sp, #4]
 1753 0202 2368     		ldr	r3, [r4]
 1754 0204 9A42     		cmp	r2, r3
 1755 0206 1AD1     		bne	.L190
 1756              		.loc 2 251 0
 1757 0208 02B0     		add	sp, sp, #8
 1758              		.cfi_remember_state
 1759              		.cfi_def_cfa_offset 8
 1760              		@ sp needed
 1761 020a BDE81040 		pop	{r4, lr}
 1762              		.cfi_restore 14
 1763              		.cfi_restore 4
 1764              		.cfi_def_cfa_offset 0
 1765              		.loc 2 245 0
 1766 020e FFF7FEBF 		b	go_forward
 1767              	.LVL191:
ARM GAS  C:\Users\Admin\AppData\Local\Temp\ccjJNCUZ.s 			page 32


 1768              	.L160:
 1769              		.cfi_restore_state
 1770              		.loc 2 215 0
 1771 0212 FFF7FEFF 		bl	stop
 1772              	.LVL192:
 1773              		.loc 2 216 0
 1774 0216 019A     		ldr	r2, [sp, #4]
 1775 0218 2368     		ldr	r3, [r4]
 1776 021a 9A42     		cmp	r2, r3
 1777 021c 0FD1     		bne	.L190
 1778 021e 1049     		ldr	r1, .L197+28
 1779 0220 0E48     		ldr	r0, .L197+24
 1780              		.loc 2 251 0
 1781 0222 02B0     		add	sp, sp, #8
 1782              		.cfi_remember_state
 1783              		.cfi_def_cfa_offset 8
 1784              		@ sp needed
 1785 0224 BDE81040 		pop	{r4, lr}
 1786              		.cfi_restore 14
 1787              		.cfi_restore 4
 1788              		.cfi_def_cfa_offset 0
 1789              		.loc 2 216 0
 1790 0228 FFF7FEBF 		b	chprintf.constprop.0
 1791              	.LVL193:
 1792              	.L162:
 1793              		.cfi_restore_state
 1794              		.loc 2 220 0
 1795 022c 019A     		ldr	r2, [sp, #4]
 1796 022e 2368     		ldr	r3, [r4]
 1797 0230 9A42     		cmp	r2, r3
 1798 0232 04D1     		bne	.L190
 1799              		.loc 2 251 0
 1800 0234 02B0     		add	sp, sp, #8
 1801              		.cfi_remember_state
 1802              		.cfi_def_cfa_offset 8
 1803              		@ sp needed
 1804 0236 BDE81040 		pop	{r4, lr}
 1805              		.cfi_restore 14
 1806              		.cfi_restore 4
 1807              		.cfi_def_cfa_offset 0
 1808              		.loc 2 220 0
 1809 023a FFF7FEBF 		b	go_forward_regulator
 1810              	.LVL194:
 1811              	.L190:
 1812              		.cfi_restore_state
 1813              		.loc 2 251 0
 1814 023e FFF7FEFF 		bl	__stack_chk_fail
 1815              	.LVL195:
 1816              	.L198:
 1817 0242 00BF     		.align	2
 1818              	.L197:
 1819 0244 00000000 		.word	.LANCHOR0
 1820 0248 00000000 		.word	__stack_chk_guard
 1821 024c 00000000 		.word	.LC17
 1822 0250 94000000 		.word	.LC20
 1823 0254 64000000 		.word	.LC19
 1824 0258 34000000 		.word	.LC18
ARM GAS  C:\Users\Admin\AppData\Local\Temp\ccjJNCUZ.s 			page 33


 1825 025c 00000000 		.word	SD3
 1826 0260 C0000000 		.word	.LC21
 1827              		.cfi_endproc
 1828              	.LFE260:
 1829              		.size	move_command, .-move_command
 1830              		.section	.text.ThdMove,"ax",%progbits
 1831              		.align	1
 1832              		.p2align 4,,15
 1833              		.syntax unified
 1834              		.thumb
 1835              		.thumb_func
 1836              		.fpu fpv4-sp-d16
 1837              		.type	ThdMove, %function
 1838              	ThdMove:
 1839              	.LFB257:
 1840              		.loc 2 35 0
 1841              		.cfi_startproc
 1842              		@ args = 0, pretend = 0, frame = 40
 1843              		@ frame_needed = 0, uses_anonymous_args = 0
 1844              	.LVL196:
 1845 0000 00B5     		push	{lr}
 1846              		.cfi_def_cfa_offset 4
 1847              		.cfi_offset 14, -4
 1848              	.LBB6:
 1849              	.LBB7:
 1850              		.file 3 "../../lib/e-puck2_main-processor/ChibiOS//os/rt/include/chregistry.h"
 1851              		.loc 3 135 0
 1852 0002 0B4A     		ldr	r2, .L203
 1853              	.LBE7:
 1854              	.LBE6:
 1855              		.loc 2 35 0
 1856 0004 0B4B     		ldr	r3, .L203+4
 1857              	.LBB9:
 1858              	.LBB8:
 1859              		.loc 3 135 0
 1860 0006 9269     		ldr	r2, [r2, #24]
 1861 0008 0B49     		ldr	r1, .L203+8
 1862 000a 9161     		str	r1, [r2, #24]
 1863              	.LBE8:
 1864              	.LBE9:
 1865              		.loc 2 35 0
 1866 000c 8BB0     		sub	sp, sp, #44
 1867              		.cfi_def_cfa_offset 48
 1868              		.loc 2 35 0
 1869 000e 1B68     		ldr	r3, [r3]
 1870 0010 0993     		str	r3, [sp, #36]
 1871              	.LVL197:
 1872              		.loc 2 40 0
 1873 0012 01A8     		add	r0, sp, #4
 1874              	.LVL198:
 1875 0014 2022     		movs	r2, #32
 1876 0016 0021     		movs	r1, #0
 1877 0018 FFF7FEFF 		bl	memset
 1878              	.LVL199:
 1879              	.L200:
 1880              		.loc 2 45 0 discriminator 1
 1881 001c 01A8     		add	r0, sp, #4
ARM GAS  C:\Users\Admin\AppData\Local\Temp\ccjJNCUZ.s 			page 34


 1882 001e FFF7FEFF 		bl	junction_detection
 1883              	.LVL200:
 1884              		.loc 2 48 0 discriminator 1
 1885 0022 FFF7FEFF 		bl	move_command
 1886              	.LVL201:
 1887              		.loc 2 50 0 discriminator 1
 1888 0026 3220     		movs	r0, #50
 1889 0028 FFF7FEFF 		bl	chThdSleep
 1890              	.LVL202:
 1891 002c F6E7     		b	.L200
 1892              	.L204:
 1893 002e 00BF     		.align	2
 1894              	.L203:
 1895 0030 00000000 		.word	ch
 1896 0034 00000000 		.word	__stack_chk_guard
 1897 0038 00000000 		.word	.LANCHOR1
 1898              		.cfi_endproc
 1899              	.LFE257:
 1900              		.size	ThdMove, .-ThdMove
 1901              		.section	.bss.program,"aw",%nobits
 1902              		.set	.LANCHOR0,. + 0
 1903              		.type	program, %object
 1904              		.size	program, 1
 1905              	program:
 1906 0000 00       		.space	1
 1907              		.section	.bss.waThdMove,"aw",%nobits
 1908              		.align	3
 1909              		.type	waThdMove, %object
 1910              		.size	waThdMove, 4472
 1911              	waThdMove:
 1912 0000 00000000 		.space	4472
 1912      00000000 
 1912      00000000 
 1912      00000000 
 1912      00000000 
 1913              		.section	.rodata.__FUNCTION__.9998,"a",%progbits
 1914              		.align	2
 1915              		.set	.LANCHOR1,. + 0
 1916              		.type	__FUNCTION__.9998, %object
 1917              		.size	__FUNCTION__.9998, 8
 1918              	__FUNCTION__.9998:
 1919 0000 5468644D 		.ascii	"ThdMove\000"
 1919      6F766500 
 1920              		.section	.rodata.junction_detection.str1.4,"aMS",%progbits,1
 1921              		.align	2
 1922              	.LC16:
 1923 0000 6E6F6465 		.ascii	"node_type: %d\015\012\000"
 1923      5F747970 
 1923      653A2025 
 1923      640D0A00 
 1924              		.section	.rodata.move_command.str1.4,"aMS",%progbits,1
 1925              		.align	2
 1926              	.LC17:
 1927 0000 4A652073 		.ascii	"Je suis dans un crossroad et j'attends le son \015\012"
 1927      75697320 
 1927      64616E73 
 1927      20756E20 
ARM GAS  C:\Users\Admin\AppData\Local\Temp\ccjJNCUZ.s 			page 35


 1927      63726F73 
 1928 0030 00       		.ascii	"\000"
 1929 0031 000000   		.space	3
 1930              	.LC18:
 1931 0034 4A652073 		.ascii	"Je suis dans un TLeft et j'attends le son \015\012\000"
 1931      75697320 
 1931      64616E73 
 1931      20756E20 
 1931      544C6566 
 1932 0061 000000   		.space	3
 1933              	.LC19:
 1934 0064 4A652073 		.ascii	"Je suis dans un TRight et j'attends le son \015\012"
 1934      75697320 
 1934      64616E73 
 1934      20756E20 
 1934      54526967 
 1935 0091 00       		.ascii	"\000"
 1936 0092 0000     		.space	2
 1937              	.LC20:
 1938 0094 4A652073 		.ascii	"Je suis dans un T et j'attends le son \015\012\000"
 1938      75697320 
 1938      64616E73 
 1938      20756E20 
 1938      54206574 
 1939 00bd 000000   		.space	3
 1940              	.LC21:
 1941 00c0 6572726F 		.ascii	"error\000"
 1941      7200
 1942              		.section	.rodata.print_calibrated_measures.str1.4,"aMS",%progbits,1
 1943              		.align	2
 1944              	.LC8:
 1945 0000 43617074 		.ascii	"Capteur front left calibrated: %d \015\012\000"
 1945      65757220 
 1945      66726F6E 
 1945      74206C65 
 1945      66742063 
 1946 0025 000000   		.space	3
 1947              	.LC9:
 1948 0028 43617074 		.ascii	"Capteur front right calibrated: %d \015\012\000"
 1948      65757220 
 1948      66726F6E 
 1948      74207269 
 1948      67687420 
 1949 004e 0000     		.space	2
 1950              	.LC10:
 1951 0050 43617074 		.ascii	"Capteur front side left calibrated: %d \015\012\000"
 1951      65757220 
 1951      66726F6E 
 1951      74207369 
 1951      6465206C 
 1952 007a 0000     		.space	2
 1953              	.LC11:
 1954 007c 43617074 		.ascii	"Capteur front side right calibrated: %d \015\012\000"
 1954      65757220 
 1954      66726F6E 
 1954      74207369 
 1954      64652072 
ARM GAS  C:\Users\Admin\AppData\Local\Temp\ccjJNCUZ.s 			page 36


 1955 00a7 00       		.space	1
 1956              	.LC12:
 1957 00a8 43617074 		.ascii	"Capteur side left calibrated: %d \015\012\000"
 1957      65757220 
 1957      73696465 
 1957      206C6566 
 1957      74206361 
 1958              	.LC13:
 1959 00cc 43617074 		.ascii	"Capteur side right calibrated: %d \015\012\000"
 1959      65757220 
 1959      73696465 
 1959      20726967 
 1959      68742063 
 1960 00f1 000000   		.space	3
 1961              	.LC14:
 1962 00f4 43617074 		.ascii	"Capteur back left calibrated: %d \015\012\000"
 1962      65757220 
 1962      6261636B 
 1962      206C6566 
 1962      74206361 
 1963              	.LC15:
 1964 0118 43617074 		.ascii	"Capteur back right calibrated: %d \015\012\000"
 1964      65757220 
 1964      6261636B 
 1964      20726967 
 1964      68742063 
 1965              		.section	.rodata.print_measures.str1.4,"aMS",%progbits,1
 1966              		.align	2
 1967              	.LC0:
 1968 0000 43617074 		.ascii	"Capteur front left: %d \015\012\000"
 1968      65757220 
 1968      66726F6E 
 1968      74206C65 
 1968      66743A20 
 1969 001a 0000     		.space	2
 1970              	.LC1:
 1971 001c 43617074 		.ascii	"Capteur front right: %d \015\012\000"
 1971      65757220 
 1971      66726F6E 
 1971      74207269 
 1971      6768743A 
 1972 0037 00       		.space	1
 1973              	.LC2:
 1974 0038 43617074 		.ascii	"Capteur front side left: %d \015\012\000"
 1974      65757220 
 1974      66726F6E 
 1974      74207369 
 1974      6465206C 
 1975 0057 00       		.space	1
 1976              	.LC3:
 1977 0058 43617074 		.ascii	"Capteur front side right: %d \015\012\000"
 1977      65757220 
 1977      66726F6E 
 1977      74207369 
 1977      64652072 
 1978              	.LC4:
 1979 0078 43617074 		.ascii	"Capteur side left: %d \015\012\000"
ARM GAS  C:\Users\Admin\AppData\Local\Temp\ccjJNCUZ.s 			page 37


 1979      65757220 
 1979      73696465 
 1979      206C6566 
 1979      743A2025 
 1980 0091 000000   		.space	3
 1981              	.LC5:
 1982 0094 43617074 		.ascii	"Capteur side right: %d \015\012\000"
 1982      65757220 
 1982      73696465 
 1982      20726967 
 1982      68743A20 
 1983 00ae 0000     		.space	2
 1984              	.LC6:
 1985 00b0 43617074 		.ascii	"Capteur back left: %d \012\000"
 1985      65757220 
 1985      6261636B 
 1985      206C6566 
 1985      743A2025 
 1986              	.LC7:
 1987 00c8 43617074 		.ascii	"Capteur back right: %d \012\000"
 1987      65757220 
 1987      6261636B 
 1987      20726967 
 1987      68743A20 
 1988              		.text
 1989              	.Letext0:
 1990              		.file 4 "c:\\users\\admin\\desktop\\epfl\\semestre 6\\tp microinformatique\\eclipse\\eclipse_e-puc
 1991              		.file 5 "c:\\users\\admin\\desktop\\epfl\\semestre 6\\tp microinformatique\\eclipse\\eclipse_e-puc
 1992              		.file 6 "c:\\users\\admin\\desktop\\epfl\\semestre 6\\tp microinformatique\\eclipse\\eclipse_e-puc
 1993              		.file 7 "../../lib/e-puck2_main-processor/ChibiOS//os/rt/ports/ARMCMx/compilers/GCC/chtypes.h"
 1994              		.file 8 "../../lib/e-puck2_main-processor/ChibiOS//os/rt/include/chsystypes.h"
 1995              		.file 9 "../../lib/e-puck2_main-processor/ChibiOS//os/rt/include/chschd.h"
 1996              		.file 10 "../../lib/e-puck2_main-processor/ChibiOS//os/ext/CMSIS/include/core_cm4.h"
 1997              		.file 11 "../../lib/e-puck2_main-processor/ChibiOS//os/ext/CMSIS/ST/system_stm32f4xx.h"
 1998              		.file 12 "../../lib/e-puck2_main-processor/ChibiOS//os/ext/CMSIS/ST/stm32f407xx.h"
 1999              		.file 13 "../../lib/e-puck2_main-processor/ChibiOS//os/rt/ports/ARMCMx/chcore.h"
 2000              		.file 14 "../../lib/e-puck2_main-processor/ChibiOS//os/rt/ports/ARMCMx/chcore_v7m.h"
 2001              		.file 15 "../../lib/e-puck2_main-processor/ChibiOS//os/rt/include/chdebug.h"
 2002              		.file 16 "../../lib/e-puck2_main-processor/ChibiOS//os/rt/include/chtm.h"
 2003              		.file 17 "../../lib/e-puck2_main-processor/ChibiOS//os/rt/include/chstats.h"
 2004              		.file 18 "../../lib/e-puck2_main-processor/ChibiOS//os/rt/include/chsem.h"
 2005              		.file 19 "../../lib/e-puck2_main-processor/ChibiOS//os/rt/include/chmtx.h"
 2006              		.file 20 "../../lib/e-puck2_main-processor/ChibiOS//os/rt/include/chevents.h"
 2007              		.file 21 "../../lib/e-puck2_main-processor/ChibiOS//os/rt/include/chqueues.h"
 2008              		.file 22 "../../lib/e-puck2_main-processor/ChibiOS//os/rt/include/chstreams.h"
 2009              		.file 23 "../../lib/e-puck2_main-processor/ChibiOS//os/hal/ports/STM32/STM32F4xx/stm32_dma.h"
 2010              		.file 24 "../../lib/e-puck2_main-processor/ChibiOS//os/hal/include/hal_ioblock.h"
 2011              		.file 25 "../../lib/e-puck2_main-processor/ChibiOS//os/hal/ports/STM32/LLD/GPIOv2/pal_lld.h"
 2012              		.file 26 "../../lib/e-puck2_main-processor/ChibiOS//os/hal/include/adc.h"
 2013              		.file 27 "../../lib/e-puck2_main-processor/ChibiOS//os/hal/ports/STM32/STM32F4xx/adc_lld.h"
 2014              		.file 28 "../../lib/e-puck2_main-processor/ChibiOS//os/hal/include/can.h"
 2015              		.file 29 "../../lib/e-puck2_main-processor/ChibiOS//os/hal/ports/STM32/LLD/can_lld.h"
 2016              		.file 30 "../../lib/e-puck2_main-processor/ChibiOS//os/hal/include/dac.h"
 2017              		.file 31 "../../lib/e-puck2_main-processor/ChibiOS//os/hal/ports/STM32/LLD/DACv1/dac_lld.h"
 2018              		.file 32 "../../lib/e-puck2_main-processor/ChibiOS//os/hal/include/ext.h"
 2019              		.file 33 "../../lib/e-puck2_main-processor/ChibiOS//os/hal/ports/STM32/LLD/ext_lld.h"
 2020              		.file 34 "../../lib/e-puck2_main-processor/ChibiOS//os/hal/include/gpt.h"
ARM GAS  C:\Users\Admin\AppData\Local\Temp\ccjJNCUZ.s 			page 38


 2021              		.file 35 "../../lib/e-puck2_main-processor/ChibiOS//os/hal/ports/STM32/LLD/TIMv1/gpt_lld.h"
 2022              		.file 36 "../../lib/e-puck2_main-processor/ChibiOS//os/hal/ports/STM32/LLD/TIMv1/stm32_tim.h"
 2023              		.file 37 "../../lib/e-puck2_main-processor/ChibiOS//os/hal/include/i2c.h"
 2024              		.file 38 "../../lib/e-puck2_main-processor/ChibiOS//os/hal/ports/STM32/LLD/I2Cv1/i2c_lld.h"
 2025              		.file 39 "../../lib/e-puck2_main-processor/ChibiOS//os/hal/include/i2s.h"
 2026              		.file 40 "../../lib/e-puck2_main-processor/ChibiOS//os/hal/ports/STM32/LLD/SPIv1/i2s_lld.h"
 2027              		.file 41 "../../lib/e-puck2_main-processor/ChibiOS//os/hal/include/pwm.h"
 2028              		.file 42 "../../lib/e-puck2_main-processor/ChibiOS//os/hal/ports/STM32/LLD/TIMv1/pwm_lld.h"
 2029              		.file 43 "../../lib/e-puck2_main-processor/ChibiOS//os/hal/include/serial.h"
 2030              		.file 44 "../../lib/e-puck2_main-processor/ChibiOS//os/hal/ports/STM32/LLD/USARTv1/serial_lld.h"
 2031              		.file 45 "../../lib/e-puck2_main-processor/ChibiOS//os/hal/include/sdc.h"
 2032              		.file 46 "../../lib/e-puck2_main-processor/ChibiOS//os/hal/ports/STM32/LLD/sdc_lld.h"
 2033              		.file 47 "../../lib/e-puck2_main-processor/ChibiOS//os/hal/include/spi.h"
 2034              		.file 48 "../../lib/e-puck2_main-processor/ChibiOS//os/hal/ports/STM32/LLD/SPIv1/spi_lld.h"
 2035              		.file 49 "../../lib/e-puck2_main-processor/ChibiOS//os/hal/include/usb.h"
 2036              		.file 50 "../../lib/e-puck2_main-processor/ChibiOS//os/hal/ports/STM32/LLD/OTGv1/usb_lld.h"
 2037              		.file 51 "../../lib/e-puck2_main-processor/ChibiOS//os/hal/ports/STM32/LLD/OTGv1/stm32_otg.h"
 2038              		.file 52 "../../lib/e-puck2_main-processor/ChibiOS//os/hal/include/serial_usb.h"
 2039              		.file 53 "move.h"
 2040              		.file 54 "c:\\users\\admin\\desktop\\epfl\\semestre 6\\tp microinformatique\\eclipse\\eclipse_e-pu
 2041              		.file 55 "<built-in>"
 2042              		.file 56 "../../lib/e-puck2_main-processor/src/usbcfg.h"
 2043              		.file 57 "../../lib/e-puck2_main-processor/src/leds.h"
 2044              		.file 58 "../../lib/e-puck2_main-processor/src/motors.h"
 2045              		.file 59 "../../lib/e-puck2_main-processor/src/sensors/proximity.h"
 2046              		.file 60 "../../lib/e-puck2_main-processor/ChibiOS//os/rt/include/chthreads.h"
 2047              		.file 61 "./sound.h"