ARM GAS  C:\Users\isisb\AppData\Local\Temp\ccH35TjD.s 			page 1


   1              		.cpu cortex-m4
   2              		.eabi_attribute 27, 1
   3              		.eabi_attribute 28, 1
   4              		.eabi_attribute 20, 1
   5              		.eabi_attribute 21, 1
   6              		.eabi_attribute 23, 3
   7              		.eabi_attribute 24, 1
   8              		.eabi_attribute 25, 1
   9              		.eabi_attribute 26, 1
  10              		.eabi_attribute 30, 2
  11              		.eabi_attribute 34, 1
  12              		.eabi_attribute 18, 4
  13              		.file	"sound.c"
  14              		.text
  15              	.Ltext0:
  16              		.cfi_sections	.debug_frame
  17              		.section	.text.doFFT_optimized.part.0,"ax",%progbits
  18              		.align	1
  19              		.p2align 4,,15
  20              		.syntax unified
  21              		.thumb
  22              		.thumb_func
  23              		.fpu fpv4-sp-d16
  24              		.type	doFFT_optimized.part.0, %function
  25              	doFFT_optimized.part.0:
  26              	.LFB295:
  27              		.file 1 "sound.c"
  28              		.loc 1 59 0
  29              		.cfi_startproc
  30              		@ args = 0, pretend = 0, frame = 8
  31              		@ frame_needed = 0, uses_anonymous_args = 0
  32              	.LVL0:
  33 0000 00B5     		push	{lr}
  34              		.cfi_def_cfa_offset 4
  35              		.cfi_offset 14, -4
  36 0002 094B     		ldr	r3, .L7
  37 0004 83B0     		sub	sp, sp, #12
  38              		.cfi_def_cfa_offset 16
  39              		.loc 1 59 0
  40 0006 1A68     		ldr	r2, [r3]
  41 0008 0192     		str	r2, [sp, #4]
  42              	.LVL1:
  43              		.loc 1 62 0
  44 000a 019A     		ldr	r2, [sp, #4]
  45 000c 1B68     		ldr	r3, [r3]
  46 000e 9A42     		cmp	r2, r3
  47 0010 08D1     		bne	.L6
  48 0012 0146     		mov	r1, r0
  49 0014 0548     		ldr	r0, .L7+4
  50              	.LVL2:
  51 0016 0123     		movs	r3, #1
  52 0018 0022     		movs	r2, #0
  53              		.loc 1 63 0
  54 001a 03B0     		add	sp, sp, #12
  55              		.cfi_remember_state
  56              		.cfi_def_cfa_offset 4
  57              		@ sp needed
ARM GAS  C:\Users\isisb\AppData\Local\Temp\ccH35TjD.s 			page 2


  58 001c 5DF804EB 		ldr	lr, [sp], #4
  59              		.cfi_restore 14
  60              		.cfi_def_cfa_offset 0
  61              		.loc 1 62 0
  62 0020 FFF7FEBF 		b	arm_cfft_f32
  63              	.LVL3:
  64              	.L6:
  65              		.cfi_restore_state
  66 0024 FFF7FEFF 		bl	__stack_chk_fail
  67              	.LVL4:
  68              	.L8:
  69              		.align	2
  70              	.L7:
  71 0028 00000000 		.word	__stack_chk_guard
  72 002c 00000000 		.word	.LANCHOR0
  73              		.cfi_endproc
  74              	.LFE295:
  75              		.size	doFFT_optimized.part.0, .-doFFT_optimized.part.0
  76              		.section	.text.doFFT_optimized,"ax",%progbits
  77              		.align	1
  78              		.p2align 4,,15
  79              		.global	doFFT_optimized
  80              		.syntax unified
  81              		.thumb
  82              		.thumb_func
  83              		.fpu fpv4-sp-d16
  84              		.type	doFFT_optimized, %function
  85              	doFFT_optimized:
  86              	.LFB290:
  87              		.loc 1 59 0
  88              		.cfi_startproc
  89              		@ args = 0, pretend = 0, frame = 8
  90              		@ frame_needed = 0, uses_anonymous_args = 0
  91              	.LVL5:
  92 0000 00B5     		push	{lr}
  93              		.cfi_def_cfa_offset 4
  94              		.cfi_offset 14, -4
  95 0002 0C4B     		ldr	r3, .L16
  96 0004 83B0     		sub	sp, sp, #12
  97              		.cfi_def_cfa_offset 16
  98              		.loc 1 59 0
  99 0006 1A68     		ldr	r2, [r3]
 100 0008 0192     		str	r2, [sp, #4]
 101              		.loc 1 61 0
 102 000a B0F5806F 		cmp	r0, #1024
 103 000e 019A     		ldr	r2, [sp, #4]
 104 0010 1B68     		ldr	r3, [r3]
 105 0012 04D0     		beq	.L15
 106              		.loc 1 63 0
 107 0014 9A42     		cmp	r2, r3
 108 0016 0AD1     		bne	.L14
 109 0018 03B0     		add	sp, sp, #12
 110              		.cfi_remember_state
 111              		.cfi_def_cfa_offset 4
 112              		@ sp needed
 113 001a 5DF804FB 		ldr	pc, [sp], #4
 114              	.L15:
ARM GAS  C:\Users\isisb\AppData\Local\Temp\ccH35TjD.s 			page 3


 115              		.cfi_restore_state
 116 001e 9A42     		cmp	r2, r3
 117 0020 05D1     		bne	.L14
 118 0022 0846     		mov	r0, r1
 119              	.LVL6:
 120 0024 03B0     		add	sp, sp, #12
 121              		.cfi_remember_state
 122              		.cfi_def_cfa_offset 4
 123              		@ sp needed
 124 0026 5DF804EB 		ldr	lr, [sp], #4
 125              		.cfi_restore 14
 126              		.cfi_def_cfa_offset 0
 127 002a FFF7FEBF 		b	doFFT_optimized.part.0
 128              	.LVL7:
 129              	.L14:
 130              		.cfi_restore_state
 131 002e FFF7FEFF 		bl	__stack_chk_fail
 132              	.LVL8:
 133              	.L17:
 134 0032 00BF     		.align	2
 135              	.L16:
 136 0034 00000000 		.word	__stack_chk_guard
 137              		.cfi_endproc
 138              	.LFE290:
 139              		.size	doFFT_optimized, .-doFFT_optimized
 140              		.section	.text.wait_send_to_computer,"ax",%progbits
 141              		.align	1
 142              		.p2align 4,,15
 143              		.global	wait_send_to_computer
 144              		.syntax unified
 145              		.thumb
 146              		.thumb_func
 147              		.fpu fpv4-sp-d16
 148              		.type	wait_send_to_computer, %function
 149              	wait_send_to_computer:
 150              	.LFB292:
 151              		.loc 1 143 0
 152              		.cfi_startproc
 153              		@ args = 0, pretend = 0, frame = 8
 154              		@ frame_needed = 0, uses_anonymous_args = 0
 155 0000 00B5     		push	{lr}
 156              		.cfi_def_cfa_offset 4
 157              		.cfi_offset 14, -4
 158 0002 084B     		ldr	r3, .L23
 159 0004 83B0     		sub	sp, sp, #12
 160              		.cfi_def_cfa_offset 16
 161              		.loc 1 143 0
 162 0006 1A68     		ldr	r2, [r3]
 163 0008 0192     		str	r2, [sp, #4]
 164              	.LVL9:
 165              	.LBB40:
 166              	.LBB41:
 167              		.file 2 "../../lib/e-puck2_main-processor/ChibiOS//os/rt/include/chbsem.h"
 168              		.loc 2 143 0
 169 000a 019A     		ldr	r2, [sp, #4]
 170 000c 1B68     		ldr	r3, [r3]
 171 000e 9A42     		cmp	r2, r3
ARM GAS  C:\Users\isisb\AppData\Local\Temp\ccH35TjD.s 			page 4


 172 0010 05D1     		bne	.L22
 173 0012 0548     		ldr	r0, .L23+4
 174              	.LBE41:
 175              	.LBE40:
 176              		.loc 1 145 0
 177 0014 03B0     		add	sp, sp, #12
 178              		.cfi_remember_state
 179              		.cfi_def_cfa_offset 4
 180              		@ sp needed
 181 0016 5DF804EB 		ldr	lr, [sp], #4
 182              		.cfi_restore 14
 183              		.cfi_def_cfa_offset 0
 184              	.LBB43:
 185              	.LBB42:
 186              		.loc 2 143 0
 187 001a FFF7FEBF 		b	chSemWait
 188              	.LVL10:
 189              	.L22:
 190              		.cfi_restore_state
 191 001e FFF7FEFF 		bl	__stack_chk_fail
 192              	.LVL11:
 193              	.L24:
 194 0022 00BF     		.align	2
 195              	.L23:
 196 0024 00000000 		.word	__stack_chk_guard
 197 0028 00000000 		.word	.LANCHOR1
 198              	.LBE42:
 199              	.LBE43:
 200              		.cfi_endproc
 201              	.LFE292:
 202              		.size	wait_send_to_computer, .-wait_send_to_computer
 203              		.section	.text.sound_remote,"ax",%progbits
 204              		.align	1
 205              		.p2align 4,,15
 206              		.global	sound_remote
 207              		.syntax unified
 208              		.thumb
 209              		.thumb_func
 210              		.fpu fpv4-sp-d16
 211              		.type	sound_remote, %function
 212              	sound_remote:
 213              	.LFB293:
 214              		.loc 1 151 0
 215              		.cfi_startproc
 216              		@ args = 0, pretend = 0, frame = 8
 217              		@ frame_needed = 0, uses_anonymous_args = 0
 218              	.LVL12:
 219 0000 10B5     		push	{r4, lr}
 220              		.cfi_def_cfa_offset 8
 221              		.cfi_offset 4, -8
 222              		.cfi_offset 14, -4
 223 0002 2B4C     		ldr	r4, .L50
 224              		.loc 1 152 0
 225 0004 9FED2B7A 		vldr.32	s14, .L50+4
 226              		.loc 1 151 0
 227 0008 2368     		ldr	r3, [r4]
 228 000a 82B0     		sub	sp, sp, #8
ARM GAS  C:\Users\isisb\AppData\Local\Temp\ccH35TjD.s 			page 5


 229              		.cfi_def_cfa_offset 16
 230 000c 2830     		adds	r0, r0, #40
 231              	.LVL13:
 232              		.loc 1 151 0
 233 000e 0193     		str	r3, [sp, #4]
 234              	.LVL14:
 235              		.loc 1 153 0
 236 0010 4FF0FF32 		mov	r2, #-1
 237              		.loc 1 151 0
 238 0014 0A23     		movs	r3, #10
 239              	.LVL15:
 240              	.L28:
 241              	.LBB48:
 242              		.loc 1 157 0
 243 0016 F0EC017A 		vldmia.32	r0!, {s15}
 244 001a F4EEC77A 		vcmpe.f32	s15, s14
 245 001e F1EE10FA 		vmrs	APSR_nzcv, FPSCR
 246              	.LVL16:
 247              		.loc 1 159 0
 248 0022 C8BF     		it	gt
 249 0024 1AB2     		sxthgt	r2, r3
 250              	.LVL17:
 251 0026 03F10103 		add	r3, r3, #1
 252              	.LVL18:
 253              		.loc 1 158 0
 254 002a C8BF     		it	gt
 255 002c B0EE677A 		vmovgt.f32	s14, s15
 256              	.LVL19:
 257              		.loc 1 156 0
 258 0030 1F2B     		cmp	r3, #31
 259 0032 F0D1     		bne	.L28
 260              	.LBE48:
 261              		.loc 1 164 0
 262 0034 92B2     		uxth	r2, r2
 263 0036 A2F10F03 		sub	r3, r2, #15
 264 003a 022B     		cmp	r3, #2
 265 003c 24D9     		bls	.L46
 266              		.loc 1 169 0
 267 003e A2F11203 		sub	r3, r2, #18
 268 0042 022B     		cmp	r3, #2
 269 0044 11D9     		bls	.L47
 270              		.loc 1 174 0
 271 0046 A2F11603 		sub	r3, r2, #22
 272 004a 022B     		cmp	r3, #2
 273 004c 2CD9     		bls	.L48
 274              		.loc 1 179 0
 275 004e 193A     		subs	r2, r2, #25
 276 0050 022A     		cmp	r2, #2
 277 0052 1CD9     		bls	.L49
 278              		.loc 1 184 0
 279 0054 0020     		movs	r0, #0
 280 0056 FFF7FEFF 		bl	left_motor_set_speed
 281              	.LVL20:
 282              		.loc 1 185 0
 283 005a 019A     		ldr	r2, [sp, #4]
 284 005c 2368     		ldr	r3, [r4]
 285 005e 9A42     		cmp	r2, r3
ARM GAS  C:\Users\isisb\AppData\Local\Temp\ccH35TjD.s 			page 6


 286 0060 08BF     		it	eq
 287 0062 0020     		moveq	r0, #0
 288 0064 0BD0     		beq	.L42
 289              	.L43:
 290 0066 FFF7FEFF 		bl	__stack_chk_fail
 291              	.LVL21:
 292              	.L47:
 293              		.loc 1 170 0
 294 006a 1348     		ldr	r0, .L50+8
 295              	.L44:
 296 006c FFF7FEFF 		bl	left_motor_set_speed
 297              	.LVL22:
 298              		.loc 1 171 0
 299 0070 019A     		ldr	r2, [sp, #4]
 300 0072 2368     		ldr	r3, [r4]
 301 0074 9A42     		cmp	r2, r3
 302 0076 08BF     		it	eq
 303 0078 4FF41670 		moveq	r0, #600
 304 007c F3D1     		bne	.L43
 305              	.L42:
 306              		.loc 1 188 0
 307 007e 02B0     		add	sp, sp, #8
 308              		.cfi_remember_state
 309              		.cfi_def_cfa_offset 8
 310              		@ sp needed
 311 0080 BDE81040 		pop	{r4, lr}
 312              		.cfi_restore 14
 313              		.cfi_restore 4
 314              		.cfi_def_cfa_offset 0
 315              		.loc 1 185 0
 316 0084 FFF7FEBF 		b	right_motor_set_speed
 317              	.LVL23:
 318              	.L46:
 319              		.cfi_restore_state
 320              		.loc 1 165 0
 321 0088 4FF41670 		mov	r0, #600
 322 008c EEE7     		b	.L44
 323              	.L49:
 324              		.loc 1 180 0
 325 008e 0A48     		ldr	r0, .L50+8
 326              	.L45:
 327 0090 FFF7FEFF 		bl	left_motor_set_speed
 328              	.LVL24:
 329              		.loc 1 181 0
 330 0094 019A     		ldr	r2, [sp, #4]
 331 0096 2368     		ldr	r3, [r4]
 332 0098 9A42     		cmp	r2, r3
 333 009a E4D1     		bne	.L43
 334 009c 0648     		ldr	r0, .L50+8
 335              		.loc 1 188 0
 336 009e 02B0     		add	sp, sp, #8
 337              		.cfi_remember_state
 338              		.cfi_def_cfa_offset 8
 339              		@ sp needed
 340 00a0 BDE81040 		pop	{r4, lr}
 341              		.cfi_restore 14
 342              		.cfi_restore 4
ARM GAS  C:\Users\isisb\AppData\Local\Temp\ccH35TjD.s 			page 7


 343              		.cfi_def_cfa_offset 0
 344              		.loc 1 185 0
 345 00a4 FFF7FEBF 		b	right_motor_set_speed
 346              	.LVL25:
 347              	.L48:
 348              		.cfi_restore_state
 349              	.LBB49:
 350              	.LBB50:
 351              		.loc 1 175 0
 352 00a8 4FF41670 		mov	r0, #600
 353 00ac F0E7     		b	.L45
 354              	.L51:
 355 00ae 00BF     		.align	2
 356              	.L50:
 357 00b0 00000000 		.word	__stack_chk_guard
 358 00b4 00401C46 		.word	1176256512
 359 00b8 A8FDFFFF 		.word	-600
 360              	.LBE50:
 361              	.LBE49:
 362              		.cfi_endproc
 363              	.LFE293:
 364              		.size	sound_remote, .-sound_remote
 365              		.section	.text.processSound,"ax",%progbits
 366              		.align	1
 367              		.p2align 4,,15
 368              		.global	processSound
 369              		.syntax unified
 370              		.thumb
 371              		.thumb_func
 372              		.fpu fpv4-sp-d16
 373              		.type	processSound, %function
 374              	processSound:
 375              	.LFB291:
 376              		.loc 1 73 0
 377              		.cfi_startproc
 378              		@ args = 0, pretend = 0, frame = 8
 379              		@ frame_needed = 0, uses_anonymous_args = 0
 380              	.LVL26:
 381 0000 2DE9F04F 		push	{r4, r5, r6, r7, r8, r9, r10, fp, lr}
 382              		.cfi_def_cfa_offset 36
 383              		.cfi_offset 4, -36
 384              		.cfi_offset 5, -32
 385              		.cfi_offset 6, -28
 386              		.cfi_offset 7, -24
 387              		.cfi_offset 8, -20
 388              		.cfi_offset 9, -16
 389              		.cfi_offset 10, -12
 390              		.cfi_offset 11, -8
 391              		.cfi_offset 14, -4
 392 0004 644E     		ldr	r6, .L69
 393 0006 654F     		ldr	r7, .L69+4
 394 0008 3368     		ldr	r3, [r6]
 395 000a 3A88     		ldrh	r2, [r7]
 396 000c 83B0     		sub	sp, sp, #12
 397              		.cfi_def_cfa_offset 48
 398              		.loc 1 73 0
 399 000e 0193     		str	r3, [sp, #4]
ARM GAS  C:\Users\isisb\AppData\Local\Temp\ccH35TjD.s 			page 8


 400              	.LVL27:
 401              	.LBB74:
 402              		.loc 1 82 0
 403 0010 0029     		cmp	r1, #0
 404 0012 00F08B80 		beq	.L53
 405 0016 DFF88C91 		ldr	r9, .L69+12
 406 001a DFF89081 		ldr	r8, .L69+20
 407 001e DFF894E1 		ldr	lr, .L69+28
 408 0022 DFF88CC1 		ldr	ip, .L69+24
 409              		.loc 1 91 0
 410 0026 DFED5E7A 		vldr.32	s15, .L69+8
 411              		.loc 1 82 0
 412 002a 0025     		movs	r5, #0
 413 002c 04E0     		b	.L56
 414              	.LVL28:
 415              	.L54:
 416              		.loc 1 82 0 is_stmt 0 discriminator 2
 417 002e 0435     		adds	r5, r5, #4
 418              	.LVL29:
 419 0030 ADB2     		uxth	r5, r5
 420              	.LVL30:
 421 0032 A942     		cmp	r1, r5
 422 0034 40F2AD80 		bls	.L67
 423              	.LVL31:
 424              	.L56:
 425              		.loc 1 84 0 is_stmt 1
 426 0038 30F91530 		ldrsh	r3, [r0, r5, lsl #1]
 427 003c 07EE103A 		vmov	s14, r3	@ int
 428 0040 9400     		lsls	r4, r2, #2
 429 0042 B8EEC77A 		vcvt.f32.s32	s14, s14
 430 0046 09EB040A 		add	r10, r9, r4
 431              		.loc 1 85 0
 432 004a 00EB4503 		add	r3, r0, r5, lsl #1
 433              		.loc 1 84 0
 434 004e 8AED007A 		vstr.32	s14, [r10]
 435              		.loc 1 85 0
 436 0052 B3F902A0 		ldrsh	r10, [r3, #2]
 437 0056 07EE10AA 		vmov	s14, r10	@ int
 438 005a B8EEC77A 		vcvt.f32.s32	s14, s14
 439 005e 08EB040A 		add	r10, r8, r4
 440 0062 8AED007A 		vstr.32	s14, [r10]
 441              		.loc 1 86 0
 442 0066 B3F904A0 		ldrsh	r10, [r3, #4]
 443 006a 07EE10AA 		vmov	s14, r10	@ int
 444 006e B8EEC77A 		vcvt.f32.s32	s14, s14
 445 0072 0EEB040A 		add	r10, lr, r4
 446 0076 8AED007A 		vstr.32	s14, [r10]
 447              		.loc 1 87 0
 448 007a B3F90630 		ldrsh	r3, [r3, #6]
 449 007e 07EE103A 		vmov	s14, r3	@ int
 450              		.loc 1 91 0
 451 0082 531C     		adds	r3, r2, #1
 452 0084 9BB2     		uxth	r3, r3
 453              		.loc 1 87 0
 454 0086 B8EEC77A 		vcvt.f32.s32	s14, s14
 455              		.loc 1 96 0
 456 008a 0232     		adds	r2, r2, #2
ARM GAS  C:\Users\isisb\AppData\Local\Temp\ccH35TjD.s 			page 9


 457              		.loc 1 91 0
 458 008c 9B00     		lsls	r3, r3, #2
 459              		.loc 1 87 0
 460 008e 6444     		add	r4, r4, ip
 461              		.loc 1 96 0
 462 0090 92B2     		uxth	r2, r2
 463              		.loc 1 87 0
 464 0092 84ED007A 		vstr.32	s14, [r4]
 465              		.loc 1 91 0
 466 0096 09EB030B 		add	fp, r9, r3
 467              		.loc 1 92 0
 468 009a 08EB030A 		add	r10, r8, r3
 469              		.loc 1 93 0
 470 009e 0EEB0304 		add	r4, lr, r3
 471              		.loc 1 99 0
 472 00a2 B2F5006F 		cmp	r2, #2048
 473              		.loc 1 94 0
 474 00a6 6344     		add	r3, r3, ip
 475              		.loc 1 91 0
 476 00a8 CBED007A 		vstr.32	s15, [fp]
 477              		.loc 1 92 0
 478 00ac CAED007A 		vstr.32	s15, [r10]
 479              		.loc 1 93 0
 480 00b0 C4ED007A 		vstr.32	s15, [r4]
 481              		.loc 1 94 0
 482 00b4 C3ED007A 		vstr.32	s15, [r3]
 483              		.loc 1 99 0
 484 00b8 B9D3     		bcc	.L54
 485 00ba 3A80     		strh	r2, [r7]	@ movhi
 486              	.LVL32:
 487              	.L55:
 488              	.LBE74:
 489              	.LBB75:
 490              	.LBB76:
 491 00bc 3948     		ldr	r0, .L69+12
 492              	.LVL33:
 493              	.LBE76:
 494              	.LBE75:
 495              		.loc 1 131 0
 496 00be 3A4C     		ldr	r4, .L69+16
 497              	.LBB78:
 498              	.LBB77:
 499 00c0 FFF7FEFF 		bl	doFFT_optimized.part.0
 500              	.LVL34:
 501              	.LBE77:
 502              	.LBE78:
 503              	.LBB79:
 504              	.LBB80:
 505 00c4 3948     		ldr	r0, .L69+20
 506 00c6 FFF7FEFF 		bl	doFFT_optimized.part.0
 507              	.LVL35:
 508              	.LBE80:
 509              	.LBE79:
 510              	.LBB81:
 511              	.LBB82:
 512 00ca 3948     		ldr	r0, .L69+24
 513 00cc FFF7FEFF 		bl	doFFT_optimized.part.0
ARM GAS  C:\Users\isisb\AppData\Local\Temp\ccH35TjD.s 			page 10


 514              	.LVL36:
 515              	.LBE82:
 516              	.LBE81:
 517              	.LBB83:
 518              	.LBB84:
 519 00d0 3848     		ldr	r0, .L69+28
 520 00d2 FFF7FEFF 		bl	doFFT_optimized.part.0
 521              	.LVL37:
 522              	.LBE84:
 523              	.LBE83:
 524              		.loc 1 123 0
 525 00d6 4FF48062 		mov	r2, #1024
 526 00da 3749     		ldr	r1, .L69+32
 527 00dc 3148     		ldr	r0, .L69+12
 528 00de FFF7FEFF 		bl	arm_cmplx_mag_f32
 529              	.LVL38:
 530              		.loc 1 124 0
 531 00e2 4FF48062 		mov	r2, #1024
 532 00e6 3549     		ldr	r1, .L69+36
 533 00e8 3048     		ldr	r0, .L69+20
 534 00ea FFF7FEFF 		bl	arm_cmplx_mag_f32
 535              	.LVL39:
 536              		.loc 1 125 0
 537 00ee 4FF48062 		mov	r2, #1024
 538 00f2 3349     		ldr	r1, .L69+40
 539 00f4 2E48     		ldr	r0, .L69+24
 540 00f6 FFF7FEFF 		bl	arm_cmplx_mag_f32
 541              	.LVL40:
 542              		.loc 1 126 0
 543 00fa 4FF48062 		mov	r2, #1024
 544 00fe 3149     		ldr	r1, .L69+44
 545 0100 2C48     		ldr	r0, .L69+28
 546 0102 FFF7FEFF 		bl	arm_cmplx_mag_f32
 547              	.LVL41:
 548              		.loc 1 131 0
 549 0106 2378     		ldrb	r3, [r4]	@ zero_extendqisi2
 550 0108 082B     		cmp	r3, #8
 551 010a 19D8     		bhi	.L58
 552 010c 0133     		adds	r3, r3, #1
 553 010e DBB2     		uxtb	r3, r3
 554              	.L59:
 555              		.loc 1 139 0
 556 0110 0199     		ldr	r1, [sp, #4]
 557 0112 3268     		ldr	r2, [r6]
 558              		.loc 1 137 0
 559 0114 2370     		strb	r3, [r4]
 560              		.loc 1 139 0
 561 0116 9142     		cmp	r1, r2
 562              		.loc 1 136 0
 563 0118 4FF00003 		mov	r3, #0
 564 011c 3B80     		strh	r3, [r7]	@ movhi
 565              		.loc 1 139 0
 566 011e 36D1     		bne	.L66
 567 0120 2648     		ldr	r0, .L69+36
 568              		.loc 1 141 0
 569 0122 03B0     		add	sp, sp, #12
 570              		.cfi_remember_state
ARM GAS  C:\Users\isisb\AppData\Local\Temp\ccH35TjD.s 			page 11


 571              		.cfi_def_cfa_offset 36
 572              		@ sp needed
 573 0124 BDE8F04F 		pop	{r4, r5, r6, r7, r8, r9, r10, fp, lr}
 574              		.cfi_restore 14
 575              		.cfi_restore 11
 576              		.cfi_restore 10
 577              		.cfi_restore 9
 578              		.cfi_restore 8
 579              		.cfi_restore 7
 580              		.cfi_restore 6
 581              		.cfi_restore 5
 582              		.cfi_restore 4
 583              		.cfi_def_cfa_offset 0
 584              		.loc 1 139 0
 585 0128 FFF7FEBF 		b	sound_remote
 586              	.LVL42:
 587              	.L53:
 588              		.cfi_restore_state
 589              		.loc 1 104 0
 590 012c B2F5006F 		cmp	r2, #2048
 591 0130 C4D2     		bcs	.L55
 592              	.LVL43:
 593              	.L52:
 594              		.loc 1 141 0
 595 0132 019A     		ldr	r2, [sp, #4]
 596 0134 3368     		ldr	r3, [r6]
 597 0136 9A42     		cmp	r2, r3
 598 0138 29D1     		bne	.L66
 599 013a 03B0     		add	sp, sp, #12
 600              		.cfi_remember_state
 601              		.cfi_def_cfa_offset 36
 602              		@ sp needed
 603 013c BDE8F08F 		pop	{r4, r5, r6, r7, r8, r9, r10, fp, pc}
 604              	.LVL44:
 605              	.L58:
 606              		.cfi_restore_state
 607              	.LBB85:
 608              	.LBB86:
 609              	.LBB87:
 610              	.LBB88:
 611              	.LBB89:
 612              	.LBB90:
 613              	.LBB91:
 614              		.file 3 "../../lib/e-puck2_main-processor/ChibiOS//os/ext/CMSIS/include/core_cmFunc.h"
 615              		.loc 3 546 0
 616 0140 2023     		movs	r3, #32
 617              		.syntax unified
 618              	@ 546 "../../lib/e-puck2_main-processor/ChibiOS//os/ext/CMSIS/include/core_cmFunc.h" 1
 619 0142 83F31188 		MSR basepri, r3
 620              	@ 0 "" 2
 621              	.LVL45:
 622              		.thumb
 623              		.syntax unified
 624              	.LBE91:
 625              	.LBE90:
 626              	.LBE89:
 627              		.file 4 "../../lib/e-puck2_main-processor/ChibiOS//os/rt/include/chsys.h"
ARM GAS  C:\Users\isisb\AppData\Local\Temp\ccH35TjD.s 			page 12


 628              		.loc 4 349 0
 629 0146 FFF7FEFF 		bl	_stats_start_measure_crit_thd
 630              	.LVL46:
 631              		.loc 4 350 0
 632 014a FFF7FEFF 		bl	_dbg_check_lock
 633              	.LVL47:
 634              	.LBE88:
 635              	.LBE87:
 636              	.LBB92:
 637              	.LBB93:
 638              		.loc 2 268 0
 639 014e FFF7FEFF 		bl	chDbgCheckClassI
 640              	.LVL48:
 641              		.loc 2 270 0
 642 0152 1D48     		ldr	r0, .L69+48
 643 0154 8368     		ldr	r3, [r0, #8]
 644 0156 002B     		cmp	r3, #0
 645 0158 16DD     		ble	.L68
 646              	.L60:
 647              	.LVL49:
 648              	.LBE93:
 649              	.LBE92:
 650              		.loc 2 286 0
 651 015a FFF7FEFF 		bl	chSchRescheduleS
 652              	.LVL50:
 653              	.LBB95:
 654              	.LBB96:
 655              		.loc 4 360 0
 656 015e FFF7FEFF 		bl	_dbg_check_unlock
 657              	.LVL51:
 658              		.loc 4 361 0
 659 0162 FFF7FEFF 		bl	_stats_stop_measure_crit_thd
 660              	.LVL52:
 661              		.loc 4 367 0
 662 0166 194B     		ldr	r3, .L69+52
 663 0168 1A68     		ldr	r2, [r3]
 664 016a 9A42     		cmp	r2, r3
 665 016c 07D0     		beq	.L61
 666 016e 9969     		ldr	r1, [r3, #24]
 667 0170 9368     		ldr	r3, [r2, #8]
 668 0172 8A68     		ldr	r2, [r1, #8]
 669 0174 9A42     		cmp	r2, r3
 670 0176 02D2     		bcs	.L61
 671 0178 1548     		ldr	r0, .L69+56
 672 017a FFF7FEFF 		bl	chSysHalt
 673              	.LVL53:
 674              	.L61:
 675              	.LBB97:
 676              	.LBB98:
 677              	.LBB99:
 678              		.loc 3 546 0
 679 017e 0023     		movs	r3, #0
 680              		.syntax unified
 681              	@ 546 "../../lib/e-puck2_main-processor/ChibiOS//os/ext/CMSIS/include/core_cmFunc.h" 1
 682 0180 83F31188 		MSR basepri, r3
 683              	@ 0 "" 2
 684              	.LVL54:
ARM GAS  C:\Users\isisb\AppData\Local\Temp\ccH35TjD.s 			page 13


 685              		.thumb
 686              		.syntax unified
 687 0184 0123     		movs	r3, #1
 688 0186 C3E7     		b	.L59
 689              	.LVL55:
 690              	.L68:
 691              	.LBE99:
 692              	.LBE98:
 693              	.LBE97:
 694              	.LBE96:
 695              	.LBE95:
 696              	.LBB100:
 697              	.LBB94:
 698              		.loc 2 271 0
 699 0188 FFF7FEFF 		bl	chSemSignalI
 700              	.LVL56:
 701 018c E5E7     		b	.L60
 702              	.LVL57:
 703              	.L66:
 704              	.LBE94:
 705              	.LBE100:
 706              	.LBE86:
 707              	.LBE85:
 708              		.loc 1 141 0
 709 018e FFF7FEFF 		bl	__stack_chk_fail
 710              	.LVL58:
 711              	.L67:
 712 0192 3A80     		strh	r2, [r7]	@ movhi
 713 0194 CDE7     		b	.L52
 714              	.L70:
 715 0196 00BF     		.align	2
 716              	.L69:
 717 0198 00000000 		.word	__stack_chk_guard
 718 019c 00000000 		.word	.LANCHOR2
 719 01a0 00000000 		.word	0
 720 01a4 00000000 		.word	micRight_cmplx_input
 721 01a8 00000000 		.word	.LANCHOR3
 722 01ac 00000000 		.word	micLeft_cmplx_input
 723 01b0 00000000 		.word	micFront_cmplx_input
 724 01b4 00000000 		.word	micBack_cmplx_input
 725 01b8 00000000 		.word	micRight_output
 726 01bc 00000000 		.word	micLeft_output
 727 01c0 00000000 		.word	micFront_output
 728 01c4 00000000 		.word	micBack_output
 729 01c8 00000000 		.word	.LANCHOR1
 730 01cc 00000000 		.word	ch
 731 01d0 00000000 		.word	.LANCHOR4
 732              		.cfi_endproc
 733              	.LFE291:
 734              		.size	processSound, .-processSound
 735              		.section	.text.get_audio_buffer_ptr,"ax",%progbits
 736              		.align	1
 737              		.p2align 4,,15
 738              		.global	get_audio_buffer_ptr
 739              		.syntax unified
 740              		.thumb
 741              		.thumb_func
ARM GAS  C:\Users\isisb\AppData\Local\Temp\ccH35TjD.s 			page 14


 742              		.fpu fpv4-sp-d16
 743              		.type	get_audio_buffer_ptr, %function
 744              	get_audio_buffer_ptr:
 745              	.LFB294:
 746              		.loc 1 191 0
 747              		.cfi_startproc
 748              		@ args = 0, pretend = 0, frame = 8
 749              		@ frame_needed = 0, uses_anonymous_args = 0
 750              	.LVL59:
 751 0000 00B5     		push	{lr}
 752              		.cfi_def_cfa_offset 4
 753              		.cfi_offset 14, -4
 754 0002 164B     		ldr	r3, .L84
 755 0004 83B0     		sub	sp, sp, #12
 756              		.cfi_def_cfa_offset 16
 757              		.loc 1 191 0
 758 0006 1A68     		ldr	r2, [r3]
 759 0008 0192     		str	r2, [sp, #4]
 760              		.loc 1 192 0
 761 000a 88B1     		cbz	r0, .L74
 762              		.loc 1 195 0
 763 000c 0128     		cmp	r0, #1
 764 000e 17D0     		beq	.L75
 765              		.loc 1 198 0
 766 0010 0228     		cmp	r0, #2
 767 0012 19D0     		beq	.L76
 768              		.loc 1 201 0
 769 0014 0328     		cmp	r0, #3
 770 0016 15D0     		beq	.L77
 771              		.loc 1 204 0
 772 0018 0428     		cmp	r0, #4
 773 001a 17D0     		beq	.L78
 774              		.loc 1 207 0
 775 001c 0528     		cmp	r0, #5
 776 001e 17D0     		beq	.L79
 777              		.loc 1 210 0
 778 0020 0628     		cmp	r0, #6
 779 0022 17D0     		beq	.L80
 780              		.loc 1 217 0
 781 0024 0E4A     		ldr	r2, .L84+4
 782              		.loc 1 213 0
 783 0026 0728     		cmp	r0, #7
 784              		.loc 1 217 0
 785 0028 0CBF     		ite	eq
 786 002a 1046     		moveq	r0, r2
 787              	.LVL60:
 788 002c 0020     		movne	r0, #0
 789 002e 00E0     		b	.L71
 790              	.LVL61:
 791              	.L74:
 792              		.loc 1 193 0
 793 0030 0C48     		ldr	r0, .L84+8
 794              	.LVL62:
 795              	.L71:
 796              		.loc 1 219 0
 797 0032 019A     		ldr	r2, [sp, #4]
 798 0034 1B68     		ldr	r3, [r3]
ARM GAS  C:\Users\isisb\AppData\Local\Temp\ccH35TjD.s 			page 15


 799 0036 9A42     		cmp	r2, r3
 800 0038 0ED1     		bne	.L83
 801 003a 03B0     		add	sp, sp, #12
 802              		.cfi_remember_state
 803              		.cfi_def_cfa_offset 4
 804              		@ sp needed
 805 003c 5DF804FB 		ldr	pc, [sp], #4
 806              	.LVL63:
 807              	.L75:
 808              		.cfi_restore_state
 809              		.loc 1 196 0
 810 0040 0948     		ldr	r0, .L84+12
 811              	.LVL64:
 812 0042 F6E7     		b	.L71
 813              	.LVL65:
 814              	.L77:
 815              		.loc 1 202 0
 816 0044 0948     		ldr	r0, .L84+16
 817              	.LVL66:
 818 0046 F4E7     		b	.L71
 819              	.LVL67:
 820              	.L76:
 821              		.loc 1 199 0
 822 0048 0948     		ldr	r0, .L84+20
 823              	.LVL68:
 824 004a F2E7     		b	.L71
 825              	.LVL69:
 826              	.L78:
 827              		.loc 1 205 0
 828 004c 0948     		ldr	r0, .L84+24
 829              	.LVL70:
 830 004e F0E7     		b	.L71
 831              	.LVL71:
 832              	.L79:
 833              		.loc 1 208 0
 834 0050 0948     		ldr	r0, .L84+28
 835              	.LVL72:
 836 0052 EEE7     		b	.L71
 837              	.LVL73:
 838              	.L80:
 839              		.loc 1 211 0
 840 0054 0948     		ldr	r0, .L84+32
 841              	.LVL74:
 842 0056 ECE7     		b	.L71
 843              	.L83:
 844              		.loc 1 219 0
 845 0058 FFF7FEFF 		bl	__stack_chk_fail
 846              	.LVL75:
 847              	.L85:
 848              		.align	2
 849              	.L84:
 850 005c 00000000 		.word	__stack_chk_guard
 851 0060 00000000 		.word	micBack_output
 852 0064 00000000 		.word	micLeft_cmplx_input
 853 0068 00000000 		.word	micRight_cmplx_input
 854 006c 00000000 		.word	micBack_cmplx_input
 855 0070 00000000 		.word	micFront_cmplx_input
ARM GAS  C:\Users\isisb\AppData\Local\Temp\ccH35TjD.s 			page 16


 856 0074 00000000 		.word	micLeft_output
 857 0078 00000000 		.word	micRight_output
 858 007c 00000000 		.word	micFront_output
 859              		.cfi_endproc
 860              	.LFE294:
 861              		.size	get_audio_buffer_ptr, .-get_audio_buffer_ptr
 862              		.global	arm_cfft_sR_f32_len4096
 863              		.global	arm_cfft_sR_f32_len2048
 864              		.global	arm_cfft_sR_f32_len1024
 865              		.global	arm_cfft_sR_f32_len512
 866              		.global	arm_cfft_sR_f32_len256
 867              		.global	arm_cfft_sR_f32_len128
 868              		.global	arm_cfft_sR_f32_len64
 869              		.global	arm_cfft_sR_f32_len32
 870              		.global	arm_cfft_sR_f32_len16
 871              		.section	.bss.micBack_cmplx_input,"aw",%nobits
 872              		.align	2
 873              		.type	micBack_cmplx_input, %object
 874              		.size	micBack_cmplx_input, 8192
 875              	micBack_cmplx_input:
 876 0000 00000000 		.space	8192
 876      00000000 
 876      00000000 
 876      00000000 
 876      00000000 
 877              		.section	.bss.micBack_output,"aw",%nobits
 878              		.align	2
 879              		.type	micBack_output, %object
 880              		.size	micBack_output, 4096
 881              	micBack_output:
 882 0000 00000000 		.space	4096
 882      00000000 
 882      00000000 
 882      00000000 
 882      00000000 
 883              		.section	.bss.micFront_cmplx_input,"aw",%nobits
 884              		.align	2
 885              		.type	micFront_cmplx_input, %object
 886              		.size	micFront_cmplx_input, 8192
 887              	micFront_cmplx_input:
 888 0000 00000000 		.space	8192
 888      00000000 
 888      00000000 
 888      00000000 
 888      00000000 
 889              		.section	.bss.micFront_output,"aw",%nobits
 890              		.align	2
 891              		.type	micFront_output, %object
 892              		.size	micFront_output, 4096
 893              	micFront_output:
 894 0000 00000000 		.space	4096
 894      00000000 
 894      00000000 
 894      00000000 
 894      00000000 
 895              		.section	.bss.micLeft_cmplx_input,"aw",%nobits
 896              		.align	2
ARM GAS  C:\Users\isisb\AppData\Local\Temp\ccH35TjD.s 			page 17


 897              		.type	micLeft_cmplx_input, %object
 898              		.size	micLeft_cmplx_input, 8192
 899              	micLeft_cmplx_input:
 900 0000 00000000 		.space	8192
 900      00000000 
 900      00000000 
 900      00000000 
 900      00000000 
 901              		.section	.bss.micLeft_output,"aw",%nobits
 902              		.align	2
 903              		.type	micLeft_output, %object
 904              		.size	micLeft_output, 4096
 905              	micLeft_output:
 906 0000 00000000 		.space	4096
 906      00000000 
 906      00000000 
 906      00000000 
 906      00000000 
 907              		.section	.bss.micRight_cmplx_input,"aw",%nobits
 908              		.align	2
 909              		.type	micRight_cmplx_input, %object
 910              		.size	micRight_cmplx_input, 8192
 911              	micRight_cmplx_input:
 912 0000 00000000 		.space	8192
 912      00000000 
 912      00000000 
 912      00000000 
 912      00000000 
 913              		.section	.bss.micRight_output,"aw",%nobits
 914              		.align	2
 915              		.type	micRight_output, %object
 916              		.size	micRight_output, 4096
 917              	micRight_output:
 918 0000 00000000 		.space	4096
 918      00000000 
 918      00000000 
 918      00000000 
 918      00000000 
 919              		.section	.bss.mustSend.14040,"aw",%nobits
 920              		.set	.LANCHOR3,. + 0
 921              		.type	mustSend.14040, %object
 922              		.size	mustSend.14040, 1
 923              	mustSend.14040:
 924 0000 00       		.space	1
 925              		.section	.bss.nb_samples.14039,"aw",%nobits
 926              		.align	1
 927              		.set	.LANCHOR2,. + 0
 928              		.type	nb_samples.14039, %object
 929              		.size	nb_samples.14039, 2
 930              	nb_samples.14039:
 931 0000 0000     		.space	2
 932              		.section	.data.sendToComputer_sem,"aw",%progbits
 933              		.align	2
 934              		.set	.LANCHOR1,. + 0
 935              		.type	sendToComputer_sem, %object
 936              		.size	sendToComputer_sem, 12
 937              	sendToComputer_sem:
ARM GAS  C:\Users\isisb\AppData\Local\Temp\ccH35TjD.s 			page 18


 938 0000 00000000 		.word	sendToComputer_sem
 939 0004 00000000 		.word	sendToComputer_sem
 940 0008 00000000 		.word	0
 941              		.section	.rodata.__func__.7153,"a",%progbits
 942              		.align	2
 943              		.set	.LANCHOR4,. + 0
 944              		.type	__func__.7153, %object
 945              		.size	__func__.7153, 12
 946              	__func__.7153:
 947 0000 63685379 		.ascii	"chSysUnlock\000"
 947      73556E6C 
 947      6F636B00 
 948              		.section	.rodata.arm_cfft_sR_f32_len1024,"a",%progbits
 949              		.align	2
 950              		.set	.LANCHOR0,. + 0
 951              		.type	arm_cfft_sR_f32_len1024, %object
 952              		.size	arm_cfft_sR_f32_len1024, 16
 953              	arm_cfft_sR_f32_len1024:
 954 0000 0004     		.short	1024
 955 0002 0000     		.space	2
 956 0004 00000000 		.word	twiddleCoef_1024
 957 0008 00000000 		.word	armBitRevIndexTable1024
 958 000c 0807     		.short	1800
 959 000e 0000     		.space	2
 960              		.section	.rodata.arm_cfft_sR_f32_len128,"a",%progbits
 961              		.align	2
 962              		.type	arm_cfft_sR_f32_len128, %object
 963              		.size	arm_cfft_sR_f32_len128, 16
 964              	arm_cfft_sR_f32_len128:
 965 0000 8000     		.short	128
 966 0002 0000     		.space	2
 967 0004 00000000 		.word	twiddleCoef_128
 968 0008 00000000 		.word	armBitRevIndexTable128
 969 000c D000     		.short	208
 970 000e 0000     		.space	2
 971              		.section	.rodata.arm_cfft_sR_f32_len16,"a",%progbits
 972              		.align	2
 973              		.type	arm_cfft_sR_f32_len16, %object
 974              		.size	arm_cfft_sR_f32_len16, 16
 975              	arm_cfft_sR_f32_len16:
 976 0000 1000     		.short	16
 977 0002 0000     		.space	2
 978 0004 00000000 		.word	twiddleCoef_16
 979 0008 00000000 		.word	armBitRevIndexTable16
 980 000c 1400     		.short	20
 981 000e 0000     		.space	2
 982              		.section	.rodata.arm_cfft_sR_f32_len2048,"a",%progbits
 983              		.align	2
 984              		.type	arm_cfft_sR_f32_len2048, %object
 985              		.size	arm_cfft_sR_f32_len2048, 16
 986              	arm_cfft_sR_f32_len2048:
 987 0000 0008     		.short	2048
 988 0002 0000     		.space	2
 989 0004 00000000 		.word	twiddleCoef_2048
 990 0008 00000000 		.word	armBitRevIndexTable2048
 991 000c E00E     		.short	3808
 992 000e 0000     		.space	2
ARM GAS  C:\Users\isisb\AppData\Local\Temp\ccH35TjD.s 			page 19


 993              		.section	.rodata.arm_cfft_sR_f32_len256,"a",%progbits
 994              		.align	2
 995              		.type	arm_cfft_sR_f32_len256, %object
 996              		.size	arm_cfft_sR_f32_len256, 16
 997              	arm_cfft_sR_f32_len256:
 998 0000 0001     		.short	256
 999 0002 0000     		.space	2
 1000 0004 00000000 		.word	twiddleCoef_256
 1001 0008 00000000 		.word	armBitRevIndexTable256
 1002 000c B801     		.short	440
 1003 000e 0000     		.space	2
 1004              		.section	.rodata.arm_cfft_sR_f32_len32,"a",%progbits
 1005              		.align	2
 1006              		.type	arm_cfft_sR_f32_len32, %object
 1007              		.size	arm_cfft_sR_f32_len32, 16
 1008              	arm_cfft_sR_f32_len32:
 1009 0000 2000     		.short	32
 1010 0002 0000     		.space	2
 1011 0004 00000000 		.word	twiddleCoef_32
 1012 0008 00000000 		.word	armBitRevIndexTable32
 1013 000c 3000     		.short	48
 1014 000e 0000     		.space	2
 1015              		.section	.rodata.arm_cfft_sR_f32_len4096,"a",%progbits
 1016              		.align	2
 1017              		.type	arm_cfft_sR_f32_len4096, %object
 1018              		.size	arm_cfft_sR_f32_len4096, 16
 1019              	arm_cfft_sR_f32_len4096:
 1020 0000 0010     		.short	4096
 1021 0002 0000     		.space	2
 1022 0004 00000000 		.word	twiddleCoef_4096
 1023 0008 00000000 		.word	armBitRevIndexTable4096
 1024 000c C00F     		.short	4032
 1025 000e 0000     		.space	2
 1026              		.section	.rodata.arm_cfft_sR_f32_len512,"a",%progbits
 1027              		.align	2
 1028              		.type	arm_cfft_sR_f32_len512, %object
 1029              		.size	arm_cfft_sR_f32_len512, 16
 1030              	arm_cfft_sR_f32_len512:
 1031 0000 0002     		.short	512
 1032 0002 0000     		.space	2
 1033 0004 00000000 		.word	twiddleCoef_512
 1034 0008 00000000 		.word	armBitRevIndexTable512
 1035 000c C001     		.short	448
 1036 000e 0000     		.space	2
 1037              		.section	.rodata.arm_cfft_sR_f32_len64,"a",%progbits
 1038              		.align	2
 1039              		.type	arm_cfft_sR_f32_len64, %object
 1040              		.size	arm_cfft_sR_f32_len64, 16
 1041              	arm_cfft_sR_f32_len64:
 1042 0000 4000     		.short	64
 1043 0002 0000     		.space	2
 1044 0004 00000000 		.word	twiddleCoef_64
 1045 0008 00000000 		.word	armBitRevIndexTable64
 1046 000c 3800     		.short	56
 1047 000e 0000     		.space	2
 1048              		.text
 1049              	.Letext0:
ARM GAS  C:\Users\isisb\AppData\Local\Temp\ccH35TjD.s 			page 20


 1050              		.file 5 "c:\\users\\isisb\\onedrive\\desktop\\eclipse\\tools\\gcc-arm-none-eabi-7-2017-q4-major-wi
 1051              		.file 6 "c:\\users\\isisb\\onedrive\\desktop\\eclipse\\tools\\gcc-arm-none-eabi-7-2017-q4-major-wi
 1052              		.file 7 "c:\\users\\isisb\\onedrive\\desktop\\eclipse\\tools\\gcc-arm-none-eabi-7-2017-q4-major-wi
 1053              		.file 8 "../../lib/e-puck2_main-processor/ChibiOS//os/rt/ports/ARMCMx/compilers/GCC/chtypes.h"
 1054              		.file 9 "../../lib/e-puck2_main-processor/ChibiOS//os/rt/include/chsystypes.h"
 1055              		.file 10 "../../lib/e-puck2_main-processor/ChibiOS//os/rt/include/chschd.h"
 1056              		.file 11 "../../lib/e-puck2_main-processor/ChibiOS//os/ext/CMSIS/include/core_cm4.h"
 1057              		.file 12 "../../lib/e-puck2_main-processor/ChibiOS//os/ext/CMSIS/ST/system_stm32f4xx.h"
 1058              		.file 13 "../../lib/e-puck2_main-processor/ChibiOS//os/ext/CMSIS/ST/stm32f407xx.h"
 1059              		.file 14 "../../lib/e-puck2_main-processor/ChibiOS//os/rt/ports/ARMCMx/chcore.h"
 1060              		.file 15 "../../lib/e-puck2_main-processor/ChibiOS//os/rt/ports/ARMCMx/chcore_v7m.h"
 1061              		.file 16 "../../lib/e-puck2_main-processor/ChibiOS//os/rt/include/chdebug.h"
 1062              		.file 17 "../../lib/e-puck2_main-processor/ChibiOS//os/rt/include/chtm.h"
 1063              		.file 18 "../../lib/e-puck2_main-processor/ChibiOS//os/rt/include/chstats.h"
 1064              		.file 19 "../../lib/e-puck2_main-processor/ChibiOS//os/rt/include/chsem.h"
 1065              		.file 20 "../../lib/e-puck2_main-processor/ChibiOS//os/rt/include/chmtx.h"
 1066              		.file 21 "../../lib/e-puck2_main-processor/ChibiOS//os/rt/include/chregistry.h"
 1067              		.file 22 "../../lib/e-puck2_main-processor/ChibiOS//os/rt/include/chevents.h"
 1068              		.file 23 "../../lib/e-puck2_main-processor/ChibiOS//os/rt/include/chqueues.h"
 1069              		.file 24 "../../lib/e-puck2_main-processor/ChibiOS//os/hal/ports/STM32/STM32F4xx/stm32_dma.h"
 1070              		.file 25 "../../lib/e-puck2_main-processor/ChibiOS//os/hal/include/hal_ioblock.h"
 1071              		.file 26 "../../lib/e-puck2_main-processor/ChibiOS//os/hal/ports/STM32/LLD/GPIOv2/pal_lld.h"
 1072              		.file 27 "../../lib/e-puck2_main-processor/ChibiOS//os/hal/include/adc.h"
 1073              		.file 28 "../../lib/e-puck2_main-processor/ChibiOS//os/hal/ports/STM32/STM32F4xx/adc_lld.h"
 1074              		.file 29 "../../lib/e-puck2_main-processor/ChibiOS//os/hal/include/can.h"
 1075              		.file 30 "../../lib/e-puck2_main-processor/ChibiOS//os/hal/ports/STM32/LLD/can_lld.h"
 1076              		.file 31 "../../lib/e-puck2_main-processor/ChibiOS//os/hal/include/dac.h"
 1077              		.file 32 "../../lib/e-puck2_main-processor/ChibiOS//os/hal/ports/STM32/LLD/DACv1/dac_lld.h"
 1078              		.file 33 "../../lib/e-puck2_main-processor/ChibiOS//os/hal/include/ext.h"
 1079              		.file 34 "../../lib/e-puck2_main-processor/ChibiOS//os/hal/ports/STM32/LLD/ext_lld.h"
 1080              		.file 35 "../../lib/e-puck2_main-processor/ChibiOS//os/hal/include/gpt.h"
 1081              		.file 36 "../../lib/e-puck2_main-processor/ChibiOS//os/hal/ports/STM32/LLD/TIMv1/gpt_lld.h"
 1082              		.file 37 "../../lib/e-puck2_main-processor/ChibiOS//os/hal/ports/STM32/LLD/TIMv1/stm32_tim.h"
 1083              		.file 38 "../../lib/e-puck2_main-processor/ChibiOS//os/hal/include/i2c.h"
 1084              		.file 39 "../../lib/e-puck2_main-processor/ChibiOS//os/hal/ports/STM32/LLD/I2Cv1/i2c_lld.h"
 1085              		.file 40 "../../lib/e-puck2_main-processor/ChibiOS//os/hal/include/i2s.h"
 1086              		.file 41 "../../lib/e-puck2_main-processor/ChibiOS//os/hal/ports/STM32/LLD/SPIv1/i2s_lld.h"
 1087              		.file 42 "../../lib/e-puck2_main-processor/ChibiOS//os/hal/include/pwm.h"
 1088              		.file 43 "../../lib/e-puck2_main-processor/ChibiOS//os/hal/ports/STM32/LLD/TIMv1/pwm_lld.h"
 1089              		.file 44 "../../lib/e-puck2_main-processor/ChibiOS//os/hal/include/serial.h"
 1090              		.file 45 "../../lib/e-puck2_main-processor/ChibiOS//os/hal/ports/STM32/LLD/USARTv1/serial_lld.h"
 1091              		.file 46 "../../lib/e-puck2_main-processor/ChibiOS//os/hal/include/sdc.h"
 1092              		.file 47 "../../lib/e-puck2_main-processor/ChibiOS//os/hal/ports/STM32/LLD/sdc_lld.h"
 1093              		.file 48 "../../lib/e-puck2_main-processor/ChibiOS//os/hal/include/spi.h"
 1094              		.file 49 "../../lib/e-puck2_main-processor/ChibiOS//os/hal/ports/STM32/LLD/SPIv1/spi_lld.h"
 1095              		.file 50 "../../lib/e-puck2_main-processor/ChibiOS//os/hal/include/usb.h"
 1096              		.file 51 "../../lib/e-puck2_main-processor/ChibiOS//os/hal/ports/STM32/LLD/OTGv1/usb_lld.h"
 1097              		.file 52 "../../lib/e-puck2_main-processor/ChibiOS//os/hal/ports/STM32/LLD/OTGv1/stm32_otg.h"
 1098              		.file 53 "../../lib/e-puck2_main-processor/ChibiOS//os/hal/include/serial_usb.h"
 1099              		.file 54 "c:\\users\\isisb\\onedrive\\desktop\\eclipse\\tools\\gcc-arm-none-eabi-7-2017-q4-major-w
 1100              		.file 55 "c:\\users\\isisb\\onedrive\\desktop\\eclipse\\tools\\gcc-arm-none-eabi-7-2017-q4-major-w
 1101              		.file 56 "c:\\users\\isisb\\onedrive\\desktop\\eclipse\\tools\\gcc-arm-none-eabi-7-2017-q4-major-w
 1102              		.file 57 "../../lib/e-puck2_main-processor/src/msgbus/messagebus.h"
 1103              		.file 58 "c:\\users\\isisb\\onedrive\\desktop\\eclipse\\tools\\gcc-arm-none-eabi-7-2017-q4-major-w
 1104              		.file 59 "c:\\users\\isisb\\onedrive\\desktop\\eclipse\\tools\\gcc-arm-none-eabi-7-2017-q4-major-w
 1105              		.file 60 "../../lib/e-puck2_main-processor/src/parameter/parameter.h"
 1106              		.file 61 "./main.h"
ARM GAS  C:\Users\isisb\AppData\Local\Temp\ccH35TjD.s 			page 21


 1107              		.file 62 "../../lib/e-puck2_main-processor/src/usbcfg.h"
 1108              		.file 63 "./sound.h"
 1109              		.file 64 "c:\\users\\isisb\\onedrive\\desktop\\eclipse\\tools\\gcc-arm-none-eabi-7-2017-q4-major-w
 1110              		.file 65 "../../lib/e-puck2_main-processor/ChibiOS//os/ext/CMSIS/include/arm_math.h"
 1111              		.file 66 "../../lib/e-puck2_main-processor/ChibiOS//os/ext/CMSIS/include/arm_common_tables.h"
 1112              		.file 67 "../../lib/e-puck2_main-processor/ChibiOS//os/ext/CMSIS/include/arm_const_structs.h"
 1113              		.file 68 "../../lib/e-puck2_main-processor/src/motors.h"