ARM GAS  C:\Users\Admin\AppData\Local\Temp\ccNnGb3h.s 			page 1


   1              		.cpu cortex-m4
   2              		.eabi_attribute 27, 1
   3              		.eabi_attribute 28, 1
   4              		.eabi_attribute 20, 1
   5              		.eabi_attribute 21, 1
   6              		.eabi_attribute 23, 3
   7              		.eabi_attribute 24, 1
   8              		.eabi_attribute 25, 1
   9              		.eabi_attribute 26, 1
  10              		.eabi_attribute 30, 2
  11              		.eabi_attribute 34, 1
  12              		.eabi_attribute 18, 4
  13              		.file	"main.c"
  14              		.text
  15              	.Ltext0:
  16              		.cfi_sections	.debug_frame
  17              		.section	.text.chprintf.constprop.0,"ax",%progbits
  18              		.align	1
  19              		.p2align 4,,15
  20              		.syntax unified
  21              		.thumb
  22              		.thumb_func
  23              		.fpu fpv4-sp-d16
  24              		.type	chprintf.constprop.0, %function
  25              	chprintf.constprop.0:
  26              	.LFB264:
  27              		.file 1 "../../lib/e-puck2_main-processor/ChibiOS//os/hal/lib/streams/chprintf.h"
  28              		.loc 1 69 0
  29              		.cfi_startproc
  30              		@ args = 4, pretend = 12, frame = 8
  31              		@ frame_needed = 0, uses_anonymous_args = 1
  32              	.LVL0:
  33 0000 0EB4     		push	{r1, r2, r3}
  34              		.cfi_def_cfa_offset 12
  35              		.cfi_offset 1, -12
  36              		.cfi_offset 2, -8
  37              		.cfi_offset 3, -4
  38 0002 10B5     		push	{r4, lr}
  39              		.cfi_def_cfa_offset 20
  40              		.cfi_offset 4, -20
  41              		.cfi_offset 14, -16
  42 0004 83B0     		sub	sp, sp, #12
  43              		.cfi_def_cfa_offset 32
  44              		.loc 1 69 0
  45 0006 05AA     		add	r2, sp, #20
  46 0008 094C     		ldr	r4, .L6
  47 000a 52F8041B 		ldr	r1, [r2], #4
  48 000e 2368     		ldr	r3, [r4]
  49              		.loc 1 74 0
  50 0010 0848     		ldr	r0, .L6+4
  51              	.LVL1:
  52              		.loc 1 73 0
  53 0012 0092     		str	r2, [sp]
  54              		.loc 1 69 0
  55 0014 0193     		str	r3, [sp, #4]
  56              	.LVL2:
  57              		.loc 1 74 0
ARM GAS  C:\Users\Admin\AppData\Local\Temp\ccNnGb3h.s 			page 2


  58 0016 FFF7FEFF 		bl	chvprintf
  59              	.LVL3:
  60              		.loc 1 78 0
  61 001a 019A     		ldr	r2, [sp, #4]
  62 001c 2368     		ldr	r3, [r4]
  63 001e 9A42     		cmp	r2, r3
  64 0020 04D1     		bne	.L5
  65 0022 03B0     		add	sp, sp, #12
  66              		.cfi_remember_state
  67              		.cfi_def_cfa_offset 20
  68              		@ sp needed
  69 0024 BDE81040 		pop	{r4, lr}
  70              		.cfi_restore 14
  71              		.cfi_restore 4
  72              		.cfi_def_cfa_offset 12
  73 0028 03B0     		add	sp, sp, #12
  74              		.cfi_restore 3
  75              		.cfi_restore 2
  76              		.cfi_restore 1
  77              		.cfi_def_cfa_offset 0
  78 002a 7047     		bx	lr
  79              	.L5:
  80              		.cfi_restore_state
  81 002c FFF7FEFF 		bl	__stack_chk_fail
  82              	.LVL4:
  83              	.L7:
  84              		.align	2
  85              	.L6:
  86 0030 00000000 		.word	__stack_chk_guard
  87 0034 00000000 		.word	SD3
  88              		.cfi_endproc
  89              	.LFE264:
  90              		.size	chprintf.constprop.0, .-chprintf.constprop.0
  91              		.section	.text.SendUint8ToComputer,"ax",%progbits
  92              		.align	1
  93              		.p2align 4,,15
  94              		.global	SendUint8ToComputer
  95              		.syntax unified
  96              		.thumb
  97              		.thumb_func
  98              		.fpu fpv4-sp-d16
  99              		.type	SendUint8ToComputer, %function
 100              	SendUint8ToComputer:
 101              	.LFB260:
 102              		.file 2 "main.c"
 103              		.loc 2 22 0
 104              		.cfi_startproc
 105              		@ args = 0, pretend = 0, frame = 16
 106              		@ frame_needed = 0, uses_anonymous_args = 0
 107              	.LVL5:
 108 0000 70B5     		push	{r4, r5, r6, lr}
 109              		.cfi_def_cfa_offset 16
 110              		.cfi_offset 4, -16
 111              		.cfi_offset 5, -12
 112              		.cfi_offset 6, -8
 113              		.cfi_offset 14, -4
 114              		.loc 2 23 0
ARM GAS  C:\Users\Admin\AppData\Local\Temp\ccNnGb3h.s 			page 3


 115 0002 124C     		ldr	r4, .L12
 116              		.loc 2 22 0
 117 0004 124D     		ldr	r5, .L12+4
 118              		.loc 2 23 0
 119 0006 2368     		ldr	r3, [r4]
 120              		.loc 2 22 0
 121 0008 2A68     		ldr	r2, [r5]
 122 000a 84B0     		sub	sp, sp, #16
 123              		.cfi_def_cfa_offset 32
 124              		.loc 2 22 0
 125 000c 0646     		mov	r6, r0
 126 000e ADF80610 		strh	r1, [sp, #6]	@ movhi
 127              		.loc 2 23 0
 128 0012 1B68     		ldr	r3, [r3]
 129 0014 0F49     		ldr	r1, .L12+8
 130              	.LVL6:
 131              		.loc 2 22 0
 132 0016 0392     		str	r2, [sp, #12]
 133              		.loc 2 23 0
 134 0018 2046     		mov	r0, r4
 135              	.LVL7:
 136 001a 0522     		movs	r2, #5
 137 001c 9847     		blx	r3
 138              	.LVL8:
 139              		.loc 2 24 0
 140 001e 2368     		ldr	r3, [r4]
 141 0020 0222     		movs	r2, #2
 142 0022 1B68     		ldr	r3, [r3]
 143 0024 0DF10601 		add	r1, sp, #6
 144 0028 2046     		mov	r0, r4
 145 002a 9847     		blx	r3
 146              	.LVL9:
 147              		.loc 2 25 0
 148 002c 2368     		ldr	r3, [r4]
 149 002e BDF80620 		ldrh	r2, [sp, #6]
 150 0032 1B68     		ldr	r3, [r3]
 151 0034 3146     		mov	r1, r6
 152 0036 2046     		mov	r0, r4
 153 0038 9847     		blx	r3
 154              	.LVL10:
 155              		.loc 2 26 0
 156 003a 039A     		ldr	r2, [sp, #12]
 157 003c 2B68     		ldr	r3, [r5]
 158 003e 9A42     		cmp	r2, r3
 159 0040 01D1     		bne	.L11
 160 0042 04B0     		add	sp, sp, #16
 161              		.cfi_remember_state
 162              		.cfi_def_cfa_offset 16
 163              		@ sp needed
 164 0044 70BD     		pop	{r4, r5, r6, pc}
 165              	.LVL11:
 166              	.L11:
 167              		.cfi_restore_state
 168 0046 FFF7FEFF 		bl	__stack_chk_fail
 169              	.LVL12:
 170              	.L13:
 171 004a 00BF     		.align	2
ARM GAS  C:\Users\Admin\AppData\Local\Temp\ccNnGb3h.s 			page 4


 172              	.L12:
 173 004c 00000000 		.word	SD3
 174 0050 00000000 		.word	__stack_chk_guard
 175 0054 00000000 		.word	.LC0
 176              		.cfi_endproc
 177              	.LFE260:
 178              		.size	SendUint8ToComputer, .-SendUint8ToComputer
 179              		.section	.text.startup.main,"ax",%progbits
 180              		.align	1
 181              		.p2align 4,,15
 182              		.global	main
 183              		.syntax unified
 184              		.thumb
 185              		.thumb_func
 186              		.fpu fpv4-sp-d16
 187              		.type	main, %function
 188              	main:
 189              	.LFB262:
 190              		.loc 2 48 0
 191              		.cfi_startproc
 192              		@ Volatile: function does not return.
 193              		@ args = 0, pretend = 0, frame = 40
 194              		@ frame_needed = 0, uses_anonymous_args = 0
 195 0000 00B5     		push	{lr}
 196              		.cfi_def_cfa_offset 4
 197              		.cfi_offset 14, -4
 198 0002 274B     		ldr	r3, .L18
 199              		.loc 2 82 0
 200 0004 274C     		ldr	r4, .L18+4
 201              		.loc 2 48 0
 202 0006 1B68     		ldr	r3, [r3]
 203              		.loc 2 82 0
 204 0008 274E     		ldr	r6, .L18+8
 205              		.loc 2 83 0
 206 000a 284D     		ldr	r5, .L18+12
 207              		.loc 2 48 0
 208 000c 8BB0     		sub	sp, sp, #44
 209              		.cfi_def_cfa_offset 48
 210              		.loc 2 48 0
 211 000e 0993     		str	r3, [sp, #36]
 212              		.loc 2 50 0
 213 0010 FFF7FEFF 		bl	halInit
 214              	.LVL13:
 215              		.loc 2 51 0
 216 0014 FFF7FEFF 		bl	chSysInit
 217              	.LVL14:
 218              		.loc 2 52 0
 219 0018 FFF7FEFF 		bl	mpu_init
 220              	.LVL15:
 221              		.loc 2 55 0
 222 001c 244A     		ldr	r2, .L18+16
 223 001e 2549     		ldr	r1, .L18+20
 224 0020 2548     		ldr	r0, .L18+24
 225 0022 FFF7FEFF 		bl	messagebus_init
 226              	.LVL16:
 227              	.LBB4:
 228              	.LBB5:
ARM GAS  C:\Users\Admin\AppData\Local\Temp\ccNnGb3h.s 			page 5


 229              		.loc 2 44 0
 230 0026 2549     		ldr	r1, .L18+28
 231 0028 2046     		mov	r0, r4
 232 002a FFF7FEFF 		bl	sdStart
 233              	.LVL17:
 234              	.LBE5:
 235              	.LBE4:
 236              		.loc 2 60 0
 237 002e FFF7FEFF 		bl	usb_start
 238              	.LVL18:
 239              		.loc 2 62 0
 240 0032 FFF7FEFF 		bl	proximity_start
 241              	.LVL19:
 242              		.loc 2 64 0
 243 0036 FFF7FEFF 		bl	dcmi_start
 244              	.LVL20:
 245              		.loc 2 65 0
 246 003a FFF7FEFF 		bl	po8030_start
 247              	.LVL21:
 248              		.loc 2 67 0
 249 003e FFF7FEFF 		bl	motors_init
 250              	.LVL22:
 251              		.loc 2 70 0
 252 0042 FFF7FEFF 		bl	pi_regulator_start
 253              	.LVL23:
 254              		.loc 2 71 0
 255 0046 FFF7FEFF 		bl	process_image_start
 256              	.LVL24:
 257              		.loc 2 73 0
 258 004a 01A8     		add	r0, sp, #4
 259 004c 2022     		movs	r2, #32
 260 004e 0021     		movs	r1, #0
 261 0050 FFF7FEFF 		bl	memset
 262              	.LVL25:
 263              	.L15:
 264              		.loc 2 81 0 discriminator 1
 265 0054 01A8     		add	r0, sp, #4
 266 0056 FFF7FEFF 		bl	measureDists
 267              	.LVL26:
 268              		.loc 2 82 0 discriminator 1
 269 005a 089A     		ldr	r2, [sp, #32]
 270 005c 3146     		mov	r1, r6
 271 005e 2046     		mov	r0, r4
 272 0060 FFF7FEFF 		bl	chprintf.constprop.0
 273              	.LVL27:
 274              		.loc 2 83 0 discriminator 1
 275 0064 019A     		ldr	r2, [sp, #4]
 276 0066 2946     		mov	r1, r5
 277 0068 2046     		mov	r0, r4
 278 006a FFF7FEFF 		bl	chprintf.constprop.0
 279              	.LVL28:
 280              		.loc 2 84 0 discriminator 1
 281 006e 079A     		ldr	r2, [sp, #28]
 282 0070 1349     		ldr	r1, .L18+32
 283 0072 2046     		mov	r0, r4
 284 0074 FFF7FEFF 		bl	chprintf.constprop.0
 285              	.LVL29:
ARM GAS  C:\Users\Admin\AppData\Local\Temp\ccNnGb3h.s 			page 6


 286              		.loc 2 85 0 discriminator 1
 287 0078 029A     		ldr	r2, [sp, #8]
 288 007a 1249     		ldr	r1, .L18+36
 289 007c 2046     		mov	r0, r4
 290 007e FFF7FEFF 		bl	chprintf.constprop.0
 291              	.LVL30:
 292              		.loc 2 86 0 discriminator 1
 293 0082 069A     		ldr	r2, [sp, #24]
 294 0084 1049     		ldr	r1, .L18+40
 295 0086 2046     		mov	r0, r4
 296 0088 FFF7FEFF 		bl	chprintf.constprop.0
 297              	.LVL31:
 298              		.loc 2 87 0 discriminator 1
 299 008c 039A     		ldr	r2, [sp, #12]
 300 008e 0F49     		ldr	r1, .L18+44
 301 0090 2046     		mov	r0, r4
 302 0092 FFF7FEFF 		bl	chprintf.constprop.0
 303              	.LVL32:
 304              		.loc 2 89 0 discriminator 1
 305 0096 4FF47A70 		mov	r0, #1000
 306 009a FFF7FEFF 		bl	chThdSleep
 307              	.LVL33:
 308 009e D9E7     		b	.L15
 309              	.L19:
 310              		.align	2
 311              	.L18:
 312 00a0 00000000 		.word	__stack_chk_guard
 313 00a4 00000000 		.word	SD3
 314 00a8 00000000 		.word	.LC1
 315 00ac 1C000000 		.word	.LC2
 316 00b0 00000000 		.word	.LANCHOR0
 317 00b4 00000000 		.word	.LANCHOR1
 318 00b8 00000000 		.word	.LANCHOR2
 319 00bc 00000000 		.word	.LANCHOR3
 320 00c0 38000000 		.word	.LC3
 321 00c4 58000000 		.word	.LC4
 322 00c8 78000000 		.word	.LC5
 323 00cc 90000000 		.word	.LC6
 324              		.cfi_endproc
 325              	.LFE262:
 326              		.size	main, .-main
 327              		.section	.text.__stack_chk_fail,"ax",%progbits
 328              		.align	1
 329              		.p2align 4,,15
 330              		.global	__stack_chk_fail
 331              		.syntax unified
 332              		.thumb
 333              		.thumb_func
 334              		.fpu fpv4-sp-d16
 335              		.type	__stack_chk_fail, %function
 336              	__stack_chk_fail:
 337              	.LFB263:
 338              		.loc 2 98 0
 339              		.cfi_startproc
 340              		@ args = 0, pretend = 0, frame = 8
 341              		@ frame_needed = 0, uses_anonymous_args = 0
 342 0000 00B5     		push	{lr}
ARM GAS  C:\Users\Admin\AppData\Local\Temp\ccNnGb3h.s 			page 7


 343              		.cfi_def_cfa_offset 4
 344              		.cfi_offset 14, -4
 345 0002 084B     		ldr	r3, .L25
 346 0004 83B0     		sub	sp, sp, #12
 347              		.cfi_def_cfa_offset 16
 348              		.loc 2 98 0
 349 0006 1A68     		ldr	r2, [r3]
 350 0008 0192     		str	r2, [sp, #4]
 351              		.loc 2 99 0
 352 000a 019A     		ldr	r2, [sp, #4]
 353 000c 1B68     		ldr	r3, [r3]
 354 000e 9A42     		cmp	r2, r3
 355 0010 05D1     		bne	.L24
 356 0012 0548     		ldr	r0, .L25+4
 357              		.loc 2 100 0
 358 0014 03B0     		add	sp, sp, #12
 359              		.cfi_remember_state
 360              		.cfi_def_cfa_offset 4
 361              		@ sp needed
 362 0016 5DF804EB 		ldr	lr, [sp], #4
 363              		.cfi_restore 14
 364              		.cfi_def_cfa_offset 0
 365              		.loc 2 99 0
 366 001a FFF7FEBF 		b	chSysHalt
 367              	.LVL34:
 368              	.L24:
 369              		.cfi_restore_state
 370 001e FFF7FEFF 		bl	__stack_chk_fail
 371              	.LVL35:
 372              	.L26:
 373 0022 00BF     		.align	2
 374              	.L25:
 375 0024 00000000 		.word	__stack_chk_guard
 376 0028 00000000 		.word	.LC7
 377              		.cfi_endproc
 378              	.LFE263:
 379              		.size	__stack_chk_fail, .-__stack_chk_fail
 380              		.global	__stack_chk_guard
 381              		.global	bus_condvar
 382              		.global	bus_lock
 383              		.global	bus
 384              		.section	.bss.bus,"aw",%nobits
 385              		.align	2
 386              		.set	.LANCHOR2,. + 0
 387              		.type	bus, %object
 388              		.size	bus, 12
 389              	bus:
 390 0000 00000000 		.space	12
 390      00000000 
 390      00000000 
 391              		.section	.data.__stack_chk_guard,"aw",%progbits
 392              		.align	2
 393              		.type	__stack_chk_guard, %object
 394              		.size	__stack_chk_guard, 4
 395              	__stack_chk_guard:
 396 0000 96E3DEE2 		.word	-488709226
 397              		.section	.data.bus_condvar,"aw",%progbits
ARM GAS  C:\Users\Admin\AppData\Local\Temp\ccNnGb3h.s 			page 8


 398              		.align	2
 399              		.set	.LANCHOR0,. + 0
 400              		.type	bus_condvar, %object
 401              		.size	bus_condvar, 8
 402              	bus_condvar:
 403 0000 00000000 		.word	bus_condvar
 404 0004 00000000 		.word	bus_condvar
 405              		.section	.data.bus_lock,"aw",%progbits
 406              		.align	2
 407              		.set	.LANCHOR1,. + 0
 408              		.type	bus_lock, %object
 409              		.size	bus_lock, 20
 410              	bus_lock:
 411 0000 00000000 		.word	bus_lock
 412 0004 00000000 		.word	bus_lock
 413 0008 00000000 		.word	0
 414 000c 00000000 		.word	0
 415 0010 00000000 		.word	0
 416              		.section	.data.ser_cfg.12818,"aw",%progbits
 417              		.align	2
 418              		.set	.LANCHOR3,. + 0
 419              		.type	ser_cfg.12818, %object
 420              		.size	ser_cfg.12818, 12
 421              	ser_cfg.12818:
 422 0000 00C20100 		.word	115200
 423 0004 0000     		.short	0
 424 0006 0000     		.short	0
 425 0008 0000     		.short	0
 426 000a 0000     		.space	2
 427              		.section	.rodata.SendUint8ToComputer.str1.4,"aMS",%progbits,1
 428              		.align	2
 429              	.LC0:
 430 0000 53544152 		.ascii	"START\000"
 430      5400
 431              		.section	.rodata.__stack_chk_fail.str1.4,"aMS",%progbits,1
 432              		.align	2
 433              	.LC7:
 434 0000 53746163 		.ascii	"Stack smashing detected\000"
 434      6B20736D 
 434      61736869 
 434      6E672064 
 434      65746563 
 435              		.section	.rodata.main.str1.4,"aMS",%progbits,1
 436              		.align	2
 437              	.LC1:
 438 0000 43617074 		.ascii	"Capteur front left: %d \012\000"
 438      65757220 
 438      66726F6E 
 438      74206C65 
 438      66743A20 
 439 0019 000000   		.space	3
 440              	.LC2:
 441 001c 43617074 		.ascii	"Capteur front right: %d \012\000"
 441      65757220 
 441      66726F6E 
 441      74207269 
 441      6768743A 
ARM GAS  C:\Users\Admin\AppData\Local\Temp\ccNnGb3h.s 			page 9


 442 0036 0000     		.space	2
 443              	.LC3:
 444 0038 43617074 		.ascii	"Capteur front side left: %d \012\000"
 444      65757220 
 444      66726F6E 
 444      74207369 
 444      6465206C 
 445 0056 0000     		.space	2
 446              	.LC4:
 447 0058 43617074 		.ascii	"Capteur front side right: %d \012\000"
 447      65757220 
 447      66726F6E 
 447      74207369 
 447      64652072 
 448 0077 00       		.space	1
 449              	.LC5:
 450 0078 43617074 		.ascii	"Capteur side left: %d \012\000"
 450      65757220 
 450      73696465 
 450      206C6566 
 450      743A2025 
 451              	.LC6:
 452 0090 43617074 		.ascii	"Capteur side right: %d \012\000"
 452      65757220 
 452      73696465 
 452      20726967 
 452      68743A20 
 453              		.text
 454              	.Letext0:
 455              		.file 3 "c:\\users\\admin\\desktop\\epfl\\semestre 6\\tp microinformatique\\eclipse\\eclipse_e-puc
 456              		.file 4 "c:\\users\\admin\\desktop\\epfl\\semestre 6\\tp microinformatique\\eclipse\\eclipse_e-puc
 457              		.file 5 "c:\\users\\admin\\desktop\\epfl\\semestre 6\\tp microinformatique\\eclipse\\eclipse_e-puc
 458              		.file 6 "c:\\users\\admin\\desktop\\epfl\\semestre 6\\tp microinformatique\\eclipse\\eclipse_e-puc
 459              		.file 7 "c:\\users\\admin\\desktop\\epfl\\semestre 6\\tp microinformatique\\eclipse\\eclipse_e-puc
 460              		.file 8 "c:\\users\\admin\\desktop\\epfl\\semestre 6\\tp microinformatique\\eclipse\\eclipse_e-puc
 461              		.file 9 "c:\\users\\admin\\desktop\\epfl\\semestre 6\\tp microinformatique\\eclipse\\eclipse_e-puc
 462              		.file 10 "<built-in>"
 463              		.file 11 "c:\\users\\admin\\desktop\\epfl\\semestre 6\\tp microinformatique\\eclipse\\eclipse_e-pu
 464              		.file 12 "c:\\users\\admin\\desktop\\epfl\\semestre 6\\tp microinformatique\\eclipse\\eclipse_e-pu
 465              		.file 13 "c:\\users\\admin\\desktop\\epfl\\semestre 6\\tp microinformatique\\eclipse\\eclipse_e-pu
 466              		.file 14 "../../lib/e-puck2_main-processor/ChibiOS//os/rt/ports/ARMCMx/compilers/GCC/chtypes.h"
 467              		.file 15 "../../lib/e-puck2_main-processor/ChibiOS//os/rt/include/chsystypes.h"
 468              		.file 16 "../../lib/e-puck2_main-processor/ChibiOS//os/rt/include/chschd.h"
 469              		.file 17 "../../lib/e-puck2_main-processor/ChibiOS//os/ext/CMSIS/include/core_cm4.h"
 470              		.file 18 "../../lib/e-puck2_main-processor/ChibiOS//os/ext/CMSIS/ST/system_stm32f4xx.h"
 471              		.file 19 "../../lib/e-puck2_main-processor/ChibiOS//os/ext/CMSIS/ST/stm32f407xx.h"
 472              		.file 20 "../../lib/e-puck2_main-processor/ChibiOS//os/rt/ports/ARMCMx/chcore.h"
 473              		.file 21 "../../lib/e-puck2_main-processor/ChibiOS//os/rt/ports/ARMCMx/chcore_v7m.h"
 474              		.file 22 "../../lib/e-puck2_main-processor/ChibiOS//os/rt/include/chdebug.h"
 475              		.file 23 "../../lib/e-puck2_main-processor/ChibiOS//os/rt/include/chtm.h"
 476              		.file 24 "../../lib/e-puck2_main-processor/ChibiOS//os/rt/include/chstats.h"
 477              		.file 25 "../../lib/e-puck2_main-processor/ChibiOS//os/rt/include/chsem.h"
 478              		.file 26 "../../lib/e-puck2_main-processor/ChibiOS//os/rt/include/chmtx.h"
 479              		.file 27 "../../lib/e-puck2_main-processor/ChibiOS//os/rt/include/chregistry.h"
 480              		.file 28 "../../lib/e-puck2_main-processor/ChibiOS//os/rt/include/chcond.h"
 481              		.file 29 "../../lib/e-puck2_main-processor/ChibiOS//os/rt/include/chevents.h"
 482              		.file 30 "../../lib/e-puck2_main-processor/ChibiOS//os/rt/include/chqueues.h"
ARM GAS  C:\Users\Admin\AppData\Local\Temp\ccNnGb3h.s 			page 10


 483              		.file 31 "../../lib/e-puck2_main-processor/ChibiOS//os/rt/include/chstreams.h"
 484              		.file 32 "../../lib/e-puck2_main-processor/ChibiOS//os/hal/ports/STM32/STM32F4xx/stm32_dma.h"
 485              		.file 33 "../../lib/e-puck2_main-processor/ChibiOS//os/hal/include/hal_ioblock.h"
 486              		.file 34 "../../lib/e-puck2_main-processor/ChibiOS//os/hal/ports/STM32/LLD/GPIOv2/pal_lld.h"
 487              		.file 35 "../../lib/e-puck2_main-processor/ChibiOS//os/hal/include/adc.h"
 488              		.file 36 "../../lib/e-puck2_main-processor/ChibiOS//os/hal/ports/STM32/STM32F4xx/adc_lld.h"
 489              		.file 37 "../../lib/e-puck2_main-processor/ChibiOS//os/hal/include/can.h"
 490              		.file 38 "../../lib/e-puck2_main-processor/ChibiOS//os/hal/ports/STM32/LLD/can_lld.h"
 491              		.file 39 "../../lib/e-puck2_main-processor/ChibiOS//os/hal/include/dac.h"
 492              		.file 40 "../../lib/e-puck2_main-processor/ChibiOS//os/hal/ports/STM32/LLD/DACv1/dac_lld.h"
 493              		.file 41 "../../lib/e-puck2_main-processor/ChibiOS//os/hal/include/ext.h"
 494              		.file 42 "../../lib/e-puck2_main-processor/ChibiOS//os/hal/ports/STM32/LLD/ext_lld.h"
 495              		.file 43 "../../lib/e-puck2_main-processor/ChibiOS//os/hal/include/gpt.h"
 496              		.file 44 "../../lib/e-puck2_main-processor/ChibiOS//os/hal/ports/STM32/LLD/TIMv1/gpt_lld.h"
 497              		.file 45 "../../lib/e-puck2_main-processor/ChibiOS//os/hal/ports/STM32/LLD/TIMv1/stm32_tim.h"
 498              		.file 46 "../../lib/e-puck2_main-processor/ChibiOS//os/hal/include/i2c.h"
 499              		.file 47 "../../lib/e-puck2_main-processor/ChibiOS//os/hal/ports/STM32/LLD/I2Cv1/i2c_lld.h"
 500              		.file 48 "../../lib/e-puck2_main-processor/ChibiOS//os/hal/include/i2s.h"
 501              		.file 49 "../../lib/e-puck2_main-processor/ChibiOS//os/hal/ports/STM32/LLD/SPIv1/i2s_lld.h"
 502              		.file 50 "../../lib/e-puck2_main-processor/ChibiOS//os/hal/include/pwm.h"
 503              		.file 51 "../../lib/e-puck2_main-processor/ChibiOS//os/hal/ports/STM32/LLD/TIMv1/pwm_lld.h"
 504              		.file 52 "../../lib/e-puck2_main-processor/ChibiOS//os/hal/include/serial.h"
 505              		.file 53 "../../lib/e-puck2_main-processor/ChibiOS//os/hal/ports/STM32/LLD/USARTv1/serial_lld.h"
 506              		.file 54 "../../lib/e-puck2_main-processor/ChibiOS//os/hal/include/sdc.h"
 507              		.file 55 "../../lib/e-puck2_main-processor/ChibiOS//os/hal/ports/STM32/LLD/sdc_lld.h"
 508              		.file 56 "../../lib/e-puck2_main-processor/ChibiOS//os/hal/include/spi.h"
 509              		.file 57 "../../lib/e-puck2_main-processor/ChibiOS//os/hal/ports/STM32/LLD/SPIv1/spi_lld.h"
 510              		.file 58 "../../lib/e-puck2_main-processor/ChibiOS//os/hal/include/usb.h"
 511              		.file 59 "../../lib/e-puck2_main-processor/ChibiOS//os/hal/ports/STM32/LLD/OTGv1/usb_lld.h"
 512              		.file 60 "../../lib/e-puck2_main-processor/ChibiOS//os/hal/ports/STM32/LLD/OTGv1/stm32_otg.h"
 513              		.file 61 "../../lib/e-puck2_main-processor/ChibiOS//os/hal/include/serial_usb.h"
 514              		.file 62 "../../lib/e-puck2_main-processor/src/usbcfg.h"
 515              		.file 63 "../../lib/e-puck2_main-processor/ChibiOS_ext/os/hal/include/../ports/STM32/STM32F4xx/dcm
 516              		.file 64 "c:\\users\\admin\\desktop\\epfl\\semestre 6\\tp microinformatique\\eclipse\\eclipse_e-pu
 517              		.file 65 "../../lib/e-puck2_main-processor/src/msgbus/messagebus.h"
 518              		.file 66 "../../lib/e-puck2_main-processor/src/parameter/parameter.h"
 519              		.file 67 "./main.h"
 520              		.file 68 "../../lib/e-puck2_main-processor/ChibiOS//os/rt/include/chsys.h"
 521              		.file 69 "../../lib/e-puck2_main-processor/ChibiOS//os/hal/include/hal.h"
 522              		.file 70 "../../lib/e-puck2_main-processor/src/memory_protection.h"
 523              		.file 71 "../../lib/e-puck2_main-processor/src/sensors/proximity.h"
 524              		.file 72 "../../lib/e-puck2_main-processor/src/camera/dcmi_camera.h"
 525              		.file 73 "../../lib/e-puck2_main-processor/src/camera/po8030.h"
 526              		.file 74 "../../lib/e-puck2_main-processor/src/motors.h"
 527              		.file 75 "./pi_regulator.h"
 528              		.file 76 "./process_image.h"
 529              		.file 77 "./capteur_distance_test.h"
 530              		.file 78 "../../lib/e-puck2_main-processor/ChibiOS//os/rt/include/chthreads.h"