ARM GAS  C:\Users\isisb\AppData\Local\Temp\ccbQkdJ6.s 			page 1


   1              		.cpu cortex-m4
   2              		.eabi_attribute 27, 1
   3              		.eabi_attribute 28, 1
   4              		.eabi_attribute 20, 1
   5              		.eabi_attribute 21, 1
   6              		.eabi_attribute 23, 3
   7              		.eabi_attribute 24, 1
   8              		.eabi_attribute 25, 1
   9              		.eabi_attribute 26, 1
  10              		.eabi_attribute 30, 2
  11              		.eabi_attribute 34, 1
  12              		.eabi_attribute 18, 4
  13              		.file	"move.c"
  14              		.text
  15              	.Ltext0:
  16              		.cfi_sections	.debug_frame
  17              		.section	.text.chprintf.constprop.0,"ax",%progbits
  18              		.align	1
  19              		.p2align 4,,15
  20              		.syntax unified
  21              		.thumb
  22              		.thumb_func
  23              		.fpu fpv4-sp-d16
  24              		.type	chprintf.constprop.0, %function
  25              	chprintf.constprop.0:
  26              	.LFB262:
  27              		.file 1 "../../lib/e-puck2_main-processor/ChibiOS//os/hal/lib/streams/chprintf.h"
  28              		.loc 1 69 0
  29              		.cfi_startproc
  30              		@ args = 4, pretend = 12, frame = 8
  31              		@ frame_needed = 0, uses_anonymous_args = 1
  32              	.LVL0:
  33 0000 0EB4     		push	{r1, r2, r3}
  34              		.cfi_def_cfa_offset 12
  35              		.cfi_offset 1, -12
  36              		.cfi_offset 2, -8
  37              		.cfi_offset 3, -4
  38 0002 10B5     		push	{r4, lr}
  39              		.cfi_def_cfa_offset 20
  40              		.cfi_offset 4, -20
  41              		.cfi_offset 14, -16
  42 0004 0A4C     		ldr	r4, .L6
  43              		.loc 1 74 0
  44 0006 0B49     		ldr	r1, .L6+4
  45              		.loc 1 69 0
  46 0008 2368     		ldr	r3, [r4]
  47              		.loc 1 74 0
  48 000a 0B48     		ldr	r0, .L6+8
  49              	.LVL1:
  50              		.loc 1 69 0
  51 000c 83B0     		sub	sp, sp, #12
  52              		.cfi_def_cfa_offset 32
  53              		.loc 1 69 0
  54 000e 0193     		str	r3, [sp, #4]
  55              	.LVL2:
  56              		.loc 1 73 0
  57 0010 06AB     		add	r3, sp, #24
ARM GAS  C:\Users\isisb\AppData\Local\Temp\ccbQkdJ6.s 			page 2


  58              		.loc 1 74 0
  59 0012 1A46     		mov	r2, r3
  60              		.loc 1 73 0
  61 0014 0093     		str	r3, [sp]
  62              		.loc 1 74 0
  63 0016 FFF7FEFF 		bl	chvprintf
  64              	.LVL3:
  65              		.loc 1 78 0
  66 001a 019A     		ldr	r2, [sp, #4]
  67 001c 2368     		ldr	r3, [r4]
  68 001e 9A42     		cmp	r2, r3
  69 0020 04D1     		bne	.L5
  70 0022 03B0     		add	sp, sp, #12
  71              		.cfi_remember_state
  72              		.cfi_def_cfa_offset 20
  73              		@ sp needed
  74 0024 BDE81040 		pop	{r4, lr}
  75              		.cfi_restore 14
  76              		.cfi_restore 4
  77              		.cfi_def_cfa_offset 12
  78 0028 03B0     		add	sp, sp, #12
  79              		.cfi_restore 3
  80              		.cfi_restore 2
  81              		.cfi_restore 1
  82              		.cfi_def_cfa_offset 0
  83 002a 7047     		bx	lr
  84              	.L5:
  85              		.cfi_restore_state
  86 002c FFF7FEFF 		bl	__stack_chk_fail
  87              	.LVL4:
  88              	.L7:
  89              		.align	2
  90              	.L6:
  91 0030 00000000 		.word	__stack_chk_guard
  92 0034 00000000 		.word	.LC0
  93 0038 00000000 		.word	SD3
  94              		.cfi_endproc
  95              	.LFE262:
  96              		.size	chprintf.constprop.0, .-chprintf.constprop.0
  97              		.section	.text.move_start,"ax",%progbits
  98              		.align	1
  99              		.p2align 4,,15
 100              		.global	move_start
 101              		.syntax unified
 102              		.thumb
 103              		.thumb_func
 104              		.fpu fpv4-sp-d16
 105              		.type	move_start, %function
 106              	move_start:
 107              	.LFB258:
 108              		.file 2 "move.c"
 109              		.loc 2 49 0
 110              		.cfi_startproc
 111              		@ args = 0, pretend = 0, frame = 8
 112              		@ frame_needed = 0, uses_anonymous_args = 0
 113 0000 10B5     		push	{r4, lr}
 114              		.cfi_def_cfa_offset 8
ARM GAS  C:\Users\isisb\AppData\Local\Temp\ccbQkdJ6.s 			page 3


 115              		.cfi_offset 4, -8
 116              		.cfi_offset 14, -4
 117 0002 0A4C     		ldr	r4, .L12
 118              		.loc 2 51 0
 119 0004 0A4B     		ldr	r3, .L12+4
 120              		.loc 2 49 0
 121 0006 2268     		ldr	r2, [r4]
 122              		.loc 2 51 0
 123 0008 0A48     		ldr	r0, .L12+8
 124              		.loc 2 49 0
 125 000a 84B0     		sub	sp, sp, #16
 126              		.cfi_def_cfa_offset 24
 127              		.loc 2 51 0
 128 000c 4FF4FC71 		mov	r1, #504
 129              		.loc 2 49 0
 130 0010 0392     		str	r2, [sp, #12]
 131              		.loc 2 51 0
 132 0012 0022     		movs	r2, #0
 133 0014 0092     		str	r2, [sp]
 134 0016 4022     		movs	r2, #64
 135 0018 FFF7FEFF 		bl	chThdCreateStatic
 136              	.LVL5:
 137              		.loc 2 52 0
 138 001c 039A     		ldr	r2, [sp, #12]
 139 001e 2368     		ldr	r3, [r4]
 140 0020 9A42     		cmp	r2, r3
 141 0022 01D1     		bne	.L11
 142 0024 04B0     		add	sp, sp, #16
 143              		.cfi_remember_state
 144              		.cfi_def_cfa_offset 8
 145              		@ sp needed
 146 0026 10BD     		pop	{r4, pc}
 147              	.L11:
 148              		.cfi_restore_state
 149 0028 FFF7FEFF 		bl	__stack_chk_fail
 150              	.LVL6:
 151              	.L13:
 152              		.align	2
 153              	.L12:
 154 002c 00000000 		.word	__stack_chk_guard
 155 0030 00000000 		.word	ThdMove
 156 0034 00000000 		.word	.LANCHOR0
 157              		.cfi_endproc
 158              	.LFE258:
 159              		.size	move_start, .-move_start
 160              		.section	.text.measure_dist_cal,"ax",%progbits
 161              		.align	1
 162              		.p2align 4,,15
 163              		.global	measure_dist_cal
 164              		.syntax unified
 165              		.thumb
 166              		.thumb_func
 167              		.fpu fpv4-sp-d16
 168              		.type	measure_dist_cal, %function
 169              	measure_dist_cal:
 170              	.LFB260:
 171              		.loc 2 104 0
ARM GAS  C:\Users\isisb\AppData\Local\Temp\ccbQkdJ6.s 			page 4


 172              		.cfi_startproc
 173              		@ args = 0, pretend = 0, frame = 8
 174              		@ frame_needed = 0, uses_anonymous_args = 0
 175              	.LVL7:
 176 0000 30B5     		push	{r4, r5, lr}
 177              		.cfi_def_cfa_offset 12
 178              		.cfi_offset 4, -12
 179              		.cfi_offset 5, -8
 180              		.cfi_offset 14, -4
 181 0002 124D     		ldr	r5, .L18
 182 0004 83B0     		sub	sp, sp, #12
 183              		.cfi_def_cfa_offset 24
 184              		.loc 2 104 0
 185 0006 2B68     		ldr	r3, [r5]
 186 0008 0193     		str	r3, [sp, #4]
 187 000a 0446     		mov	r4, r0
 188              		.loc 2 105 0
 189 000c 0020     		movs	r0, #0
 190              	.LVL8:
 191 000e FFF7FEFF 		bl	get_calibrated_prox
 192              	.LVL9:
 193 0012 2060     		str	r0, [r4]
 194              		.loc 2 106 0
 195 0014 0720     		movs	r0, #7
 196 0016 FFF7FEFF 		bl	get_calibrated_prox
 197              	.LVL10:
 198 001a E061     		str	r0, [r4, #28]
 199              		.loc 2 107 0
 200 001c 0120     		movs	r0, #1
 201 001e FFF7FEFF 		bl	get_calibrated_prox
 202              	.LVL11:
 203 0022 6060     		str	r0, [r4, #4]
 204              		.loc 2 108 0
 205 0024 0620     		movs	r0, #6
 206 0026 FFF7FEFF 		bl	get_calibrated_prox
 207              	.LVL12:
 208 002a A061     		str	r0, [r4, #24]
 209              		.loc 2 109 0
 210 002c 0220     		movs	r0, #2
 211 002e FFF7FEFF 		bl	get_calibrated_prox
 212              	.LVL13:
 213 0032 A060     		str	r0, [r4, #8]
 214              		.loc 2 110 0
 215 0034 0520     		movs	r0, #5
 216 0036 FFF7FEFF 		bl	get_calibrated_prox
 217              	.LVL14:
 218              		.loc 2 111 0
 219 003a 019A     		ldr	r2, [sp, #4]
 220 003c 2B68     		ldr	r3, [r5]
 221              		.loc 2 110 0
 222 003e 6061     		str	r0, [r4, #20]
 223              		.loc 2 111 0
 224 0040 9A42     		cmp	r2, r3
 225 0042 01D1     		bne	.L17
 226 0044 03B0     		add	sp, sp, #12
 227              		.cfi_remember_state
 228              		.cfi_def_cfa_offset 12
ARM GAS  C:\Users\isisb\AppData\Local\Temp\ccbQkdJ6.s 			page 5


 229              		@ sp needed
 230 0046 30BD     		pop	{r4, r5, pc}
 231              	.LVL15:
 232              	.L17:
 233              		.cfi_restore_state
 234 0048 FFF7FEFF 		bl	__stack_chk_fail
 235              	.LVL16:
 236              	.L19:
 237              		.align	2
 238              	.L18:
 239 004c 00000000 		.word	__stack_chk_guard
 240              		.cfi_endproc
 241              	.LFE260:
 242              		.size	measure_dist_cal, .-measure_dist_cal
 243              		.section	.text.measure_dist,"ax",%progbits
 244              		.align	1
 245              		.p2align 4,,15
 246              		.global	measure_dist
 247              		.syntax unified
 248              		.thumb
 249              		.thumb_func
 250              		.fpu fpv4-sp-d16
 251              		.type	measure_dist, %function
 252              	measure_dist:
 253              	.LFB261:
 254              		.loc 2 114 0
 255              		.cfi_startproc
 256              		@ args = 0, pretend = 0, frame = 8
 257              		@ frame_needed = 0, uses_anonymous_args = 0
 258              	.LVL17:
 259 0000 30B5     		push	{r4, r5, lr}
 260              		.cfi_def_cfa_offset 12
 261              		.cfi_offset 4, -12
 262              		.cfi_offset 5, -8
 263              		.cfi_offset 14, -4
 264 0002 124D     		ldr	r5, .L24
 265 0004 83B0     		sub	sp, sp, #12
 266              		.cfi_def_cfa_offset 24
 267              		.loc 2 114 0
 268 0006 2B68     		ldr	r3, [r5]
 269 0008 0193     		str	r3, [sp, #4]
 270 000a 0446     		mov	r4, r0
 271              		.loc 2 115 0
 272 000c 0020     		movs	r0, #0
 273              	.LVL18:
 274 000e FFF7FEFF 		bl	get_prox
 275              	.LVL19:
 276 0012 2060     		str	r0, [r4]
 277              		.loc 2 116 0
 278 0014 0720     		movs	r0, #7
 279 0016 FFF7FEFF 		bl	get_prox
 280              	.LVL20:
 281 001a E061     		str	r0, [r4, #28]
 282              		.loc 2 117 0
 283 001c 0120     		movs	r0, #1
 284 001e FFF7FEFF 		bl	get_prox
 285              	.LVL21:
ARM GAS  C:\Users\isisb\AppData\Local\Temp\ccbQkdJ6.s 			page 6


 286 0022 6060     		str	r0, [r4, #4]
 287              		.loc 2 118 0
 288 0024 0620     		movs	r0, #6
 289 0026 FFF7FEFF 		bl	get_prox
 290              	.LVL22:
 291 002a A061     		str	r0, [r4, #24]
 292              		.loc 2 119 0
 293 002c 0220     		movs	r0, #2
 294 002e FFF7FEFF 		bl	get_prox
 295              	.LVL23:
 296 0032 A060     		str	r0, [r4, #8]
 297              		.loc 2 120 0
 298 0034 0520     		movs	r0, #5
 299 0036 FFF7FEFF 		bl	get_prox
 300              	.LVL24:
 301              		.loc 2 121 0
 302 003a 019A     		ldr	r2, [sp, #4]
 303 003c 2B68     		ldr	r3, [r5]
 304              		.loc 2 120 0
 305 003e 6061     		str	r0, [r4, #20]
 306              		.loc 2 121 0
 307 0040 9A42     		cmp	r2, r3
 308 0042 01D1     		bne	.L23
 309 0044 03B0     		add	sp, sp, #12
 310              		.cfi_remember_state
 311              		.cfi_def_cfa_offset 12
 312              		@ sp needed
 313 0046 30BD     		pop	{r4, r5, pc}
 314              	.LVL25:
 315              	.L23:
 316              		.cfi_restore_state
 317 0048 FFF7FEFF 		bl	__stack_chk_fail
 318              	.LVL26:
 319              	.L25:
 320              		.align	2
 321              	.L24:
 322 004c 00000000 		.word	__stack_chk_guard
 323              		.cfi_endproc
 324              	.LFE261:
 325              		.size	measure_dist, .-measure_dist
 326              		.section	.text.junction_detection,"ax",%progbits
 327              		.align	1
 328              		.p2align 4,,15
 329              		.global	junction_detection
 330              		.syntax unified
 331              		.thumb
 332              		.thumb_func
 333              		.fpu fpv4-sp-d16
 334              		.type	junction_detection, %function
 335              	junction_detection:
 336              	.LFB259:
 337              		.loc 2 56 0
 338              		.cfi_startproc
 339              		@ args = 0, pretend = 0, frame = 8
 340              		@ frame_needed = 0, uses_anonymous_args = 0
 341              	.LVL27:
 342 0000 30B5     		push	{r4, r5, lr}
ARM GAS  C:\Users\isisb\AppData\Local\Temp\ccbQkdJ6.s 			page 7


 343              		.cfi_def_cfa_offset 12
 344              		.cfi_offset 4, -12
 345              		.cfi_offset 5, -8
 346              		.cfi_offset 14, -4
 347 0002 1B4D     		ldr	r5, .L39
 348 0004 83B0     		sub	sp, sp, #12
 349              		.cfi_def_cfa_offset 24
 350              		.loc 2 56 0
 351 0006 0446     		mov	r4, r0
 352 0008 2B68     		ldr	r3, [r5]
 353 000a 0193     		str	r3, [sp, #4]
 354              		.loc 2 58 0
 355 000c FFF7FEFF 		bl	measure_dist
 356              	.LVL28:
 357              		.loc 2 60 0
 358 0010 E369     		ldr	r3, [r4, #28]
 359 0012 C72B     		cmp	r3, #199
 360 0014 0BDC     		bgt	.L27
 361              		.loc 2 60 0 is_stmt 0 discriminator 1
 362 0016 2168     		ldr	r1, [r4]
 363 0018 6369     		ldr	r3, [r4, #20]
 364 001a A268     		ldr	r2, [r4, #8]
 365 001c C729     		cmp	r1, #199
 366 001e 08DC     		bgt	.L28
 367              		.loc 2 62 0 is_stmt 1
 368 0020 C72B     		cmp	r3, #199
 369 0022 1DDC     		bgt	.L29
 370              		.loc 2 62 0 is_stmt 0 discriminator 1
 371 0024 C72A     		cmp	r2, #199
 372 0026 CCBF     		ite	gt
 373 0028 0224     		movgt	r4, #2
 374              	.LVL29:
 375 002a 0124     		movle	r4, #1
 376 002c 07E0     		b	.L30
 377              	.LVL30:
 378              	.L27:
 379 002e 6369     		ldr	r3, [r4, #20]
 380 0030 A268     		ldr	r2, [r4, #8]
 381              	.L28:
 382              		.loc 2 81 0 is_stmt 1
 383 0032 C72B     		cmp	r3, #199
 384 0034 0FDC     		bgt	.L31
 385              		.loc 2 81 0 is_stmt 0 discriminator 1
 386 0036 C72A     		cmp	r2, #199
 387 0038 CCBF     		ite	gt
 388 003a 0624     		movgt	r4, #6
 389              	.LVL31:
 390 003c 0424     		movle	r4, #4
 391              	.L30:
 392              	.LVL32:
 393              		.loc 2 98 0 is_stmt 1
 394 003e 2246     		mov	r2, r4
 395 0040 0C49     		ldr	r1, .L39+4
 396 0042 0D48     		ldr	r0, .L39+8
 397 0044 FFF7FEFF 		bl	chprintf.constprop.0
 398              	.LVL33:
 399              		.loc 2 101 0
ARM GAS  C:\Users\isisb\AppData\Local\Temp\ccbQkdJ6.s 			page 8


 400 0048 019A     		ldr	r2, [sp, #4]
 401 004a 2B68     		ldr	r3, [r5]
 402 004c 9A42     		cmp	r2, r3
 403 004e 2046     		mov	r0, r4
 404 0050 0BD1     		bne	.L38
 405 0052 03B0     		add	sp, sp, #12
 406              		.cfi_remember_state
 407              		.cfi_def_cfa_offset 12
 408              		@ sp needed
 409 0054 30BD     		pop	{r4, r5, pc}
 410              	.LVL34:
 411              	.L31:
 412              		.cfi_restore_state
 413              		.loc 2 89 0
 414 0056 C72A     		cmp	r2, #199
 415 0058 CCBF     		ite	gt
 416 005a 0824     		movgt	r4, #8
 417              	.LVL35:
 418 005c 0724     		movle	r4, #7
 419 005e EEE7     		b	.L30
 420              	.LVL36:
 421              	.L29:
 422              		.loc 2 70 0
 423 0060 C72A     		cmp	r2, #199
 424 0062 CCBF     		ite	gt
 425 0064 0524     		movgt	r4, #5
 426              	.LVL37:
 427 0066 0324     		movle	r4, #3
 428 0068 E9E7     		b	.L30
 429              	.LVL38:
 430              	.L38:
 431              		.loc 2 101 0
 432 006a FFF7FEFF 		bl	__stack_chk_fail
 433              	.LVL39:
 434              	.L40:
 435 006e 00BF     		.align	2
 436              	.L39:
 437 0070 00000000 		.word	__stack_chk_guard
 438 0074 00000000 		.word	.LC0
 439 0078 00000000 		.word	SD3
 440              		.cfi_endproc
 441              	.LFE259:
 442              		.size	junction_detection, .-junction_detection
 443              		.section	.text.ThdMove,"ax",%progbits
 444              		.align	1
 445              		.p2align 4,,15
 446              		.syntax unified
 447              		.thumb
 448              		.thumb_func
 449              		.fpu fpv4-sp-d16
 450              		.type	ThdMove, %function
 451              	ThdMove:
 452              	.LFB257:
 453              		.loc 2 15 0
 454              		.cfi_startproc
 455              		@ args = 0, pretend = 0, frame = 40
 456              		@ frame_needed = 0, uses_anonymous_args = 0
ARM GAS  C:\Users\isisb\AppData\Local\Temp\ccbQkdJ6.s 			page 9


 457              	.LVL40:
 458 0000 00B5     		push	{lr}
 459              		.cfi_def_cfa_offset 4
 460              		.cfi_offset 14, -4
 461              	.LBB4:
 462              	.LBB5:
 463              		.file 3 "../../lib/e-puck2_main-processor/ChibiOS//os/rt/include/chregistry.h"
 464              		.loc 3 135 0
 465 0002 094A     		ldr	r2, .L45
 466              	.LBE5:
 467              	.LBE4:
 468              		.loc 2 15 0
 469 0004 094B     		ldr	r3, .L45+4
 470              	.LBB7:
 471              	.LBB6:
 472              		.loc 3 135 0
 473 0006 9269     		ldr	r2, [r2, #24]
 474 0008 0949     		ldr	r1, .L45+8
 475 000a 9161     		str	r1, [r2, #24]
 476              	.LBE6:
 477              	.LBE7:
 478              		.loc 2 15 0
 479 000c 8BB0     		sub	sp, sp, #44
 480              		.cfi_def_cfa_offset 48
 481              		.loc 2 15 0
 482 000e 1B68     		ldr	r3, [r3]
 483 0010 0993     		str	r3, [sp, #36]
 484              	.LVL41:
 485              		.loc 2 20 0
 486 0012 01A8     		add	r0, sp, #4
 487              	.LVL42:
 488 0014 2022     		movs	r2, #32
 489 0016 0021     		movs	r1, #0
 490 0018 FFF7FEFF 		bl	memset
 491              	.LVL43:
 492              	.L42:
 493              		.loc 2 23 0 discriminator 1
 494 001c 0021     		movs	r1, #0
 495 001e 01A8     		add	r0, sp, #4
 496 0020 FFF7FEFF 		bl	junction_detection
 497              	.LVL44:
 498 0024 FAE7     		b	.L42
 499              	.L46:
 500 0026 00BF     		.align	2
 501              	.L45:
 502 0028 00000000 		.word	ch
 503 002c 00000000 		.word	__stack_chk_guard
 504 0030 00000000 		.word	.LANCHOR1
 505              		.cfi_endproc
 506              	.LFE257:
 507              		.size	ThdMove, .-ThdMove
 508              		.section	.bss.waThdMove,"aw",%nobits
 509              		.align	3
 510              		.set	.LANCHOR0,. + 0
 511              		.type	waThdMove, %object
 512              		.size	waThdMove, 504
 513              	waThdMove:
ARM GAS  C:\Users\isisb\AppData\Local\Temp\ccbQkdJ6.s 			page 10


 514 0000 00000000 		.space	504
 514      00000000 
 514      00000000 
 514      00000000 
 514      00000000 
 515              		.section	.rodata.__FUNCTION__.9898,"a",%progbits
 516              		.align	2
 517              		.set	.LANCHOR1,. + 0
 518              		.type	__FUNCTION__.9898, %object
 519              		.size	__FUNCTION__.9898, 8
 520              	__FUNCTION__.9898:
 521 0000 5468644D 		.ascii	"ThdMove\000"
 521      6F766500 
 522              		.section	.rodata.chprintf.constprop.0.str1.4,"aMS",%progbits,1
 523              		.align	2
 524              	.LC0:
 525 0000 256400   		.ascii	"%d\000"
 526              		.text
 527              	.Letext0:
 528              		.file 4 "c:\\users\\isisb\\onedrive\\desktop\\eclipse\\tools\\gcc-arm-none-eabi-7-2017-q4-major-wi
 529              		.file 5 "c:\\users\\isisb\\onedrive\\desktop\\eclipse\\tools\\gcc-arm-none-eabi-7-2017-q4-major-wi
 530              		.file 6 "c:\\users\\isisb\\onedrive\\desktop\\eclipse\\tools\\gcc-arm-none-eabi-7-2017-q4-major-wi
 531              		.file 7 "../../lib/e-puck2_main-processor/ChibiOS//os/rt/ports/ARMCMx/compilers/GCC/chtypes.h"
 532              		.file 8 "../../lib/e-puck2_main-processor/ChibiOS//os/rt/include/chsystypes.h"
 533              		.file 9 "../../lib/e-puck2_main-processor/ChibiOS//os/rt/include/chschd.h"
 534              		.file 10 "../../lib/e-puck2_main-processor/ChibiOS//os/ext/CMSIS/include/core_cm4.h"
 535              		.file 11 "../../lib/e-puck2_main-processor/ChibiOS//os/ext/CMSIS/ST/system_stm32f4xx.h"
 536              		.file 12 "../../lib/e-puck2_main-processor/ChibiOS//os/ext/CMSIS/ST/stm32f407xx.h"
 537              		.file 13 "../../lib/e-puck2_main-processor/ChibiOS//os/rt/ports/ARMCMx/chcore.h"
 538              		.file 14 "../../lib/e-puck2_main-processor/ChibiOS//os/rt/ports/ARMCMx/chcore_v7m.h"
 539              		.file 15 "../../lib/e-puck2_main-processor/ChibiOS//os/rt/include/chdebug.h"
 540              		.file 16 "../../lib/e-puck2_main-processor/ChibiOS//os/rt/include/chtm.h"
 541              		.file 17 "../../lib/e-puck2_main-processor/ChibiOS//os/rt/include/chstats.h"
 542              		.file 18 "../../lib/e-puck2_main-processor/ChibiOS//os/rt/include/chsem.h"
 543              		.file 19 "../../lib/e-puck2_main-processor/ChibiOS//os/rt/include/chmtx.h"
 544              		.file 20 "../../lib/e-puck2_main-processor/ChibiOS//os/rt/include/chevents.h"
 545              		.file 21 "../../lib/e-puck2_main-processor/ChibiOS//os/rt/include/chqueues.h"
 546              		.file 22 "../../lib/e-puck2_main-processor/ChibiOS//os/rt/include/chstreams.h"
 547              		.file 23 "../../lib/e-puck2_main-processor/ChibiOS//os/hal/ports/STM32/STM32F4xx/stm32_dma.h"
 548              		.file 24 "../../lib/e-puck2_main-processor/ChibiOS//os/hal/include/hal_ioblock.h"
 549              		.file 25 "../../lib/e-puck2_main-processor/ChibiOS//os/hal/ports/STM32/LLD/GPIOv2/pal_lld.h"
 550              		.file 26 "../../lib/e-puck2_main-processor/ChibiOS//os/hal/include/adc.h"
 551              		.file 27 "../../lib/e-puck2_main-processor/ChibiOS//os/hal/ports/STM32/STM32F4xx/adc_lld.h"
 552              		.file 28 "../../lib/e-puck2_main-processor/ChibiOS//os/hal/include/can.h"
 553              		.file 29 "../../lib/e-puck2_main-processor/ChibiOS//os/hal/ports/STM32/LLD/can_lld.h"
 554              		.file 30 "../../lib/e-puck2_main-processor/ChibiOS//os/hal/include/dac.h"
 555              		.file 31 "../../lib/e-puck2_main-processor/ChibiOS//os/hal/ports/STM32/LLD/DACv1/dac_lld.h"
 556              		.file 32 "../../lib/e-puck2_main-processor/ChibiOS//os/hal/include/ext.h"
 557              		.file 33 "../../lib/e-puck2_main-processor/ChibiOS//os/hal/ports/STM32/LLD/ext_lld.h"
 558              		.file 34 "../../lib/e-puck2_main-processor/ChibiOS//os/hal/include/gpt.h"
 559              		.file 35 "../../lib/e-puck2_main-processor/ChibiOS//os/hal/ports/STM32/LLD/TIMv1/gpt_lld.h"
 560              		.file 36 "../../lib/e-puck2_main-processor/ChibiOS//os/hal/ports/STM32/LLD/TIMv1/stm32_tim.h"
 561              		.file 37 "../../lib/e-puck2_main-processor/ChibiOS//os/hal/include/i2c.h"
 562              		.file 38 "../../lib/e-puck2_main-processor/ChibiOS//os/hal/ports/STM32/LLD/I2Cv1/i2c_lld.h"
 563              		.file 39 "../../lib/e-puck2_main-processor/ChibiOS//os/hal/include/i2s.h"
 564              		.file 40 "../../lib/e-puck2_main-processor/ChibiOS//os/hal/ports/STM32/LLD/SPIv1/i2s_lld.h"
 565              		.file 41 "../../lib/e-puck2_main-processor/ChibiOS//os/hal/include/pwm.h"
ARM GAS  C:\Users\isisb\AppData\Local\Temp\ccbQkdJ6.s 			page 11


 566              		.file 42 "../../lib/e-puck2_main-processor/ChibiOS//os/hal/ports/STM32/LLD/TIMv1/pwm_lld.h"
 567              		.file 43 "../../lib/e-puck2_main-processor/ChibiOS//os/hal/include/serial.h"
 568              		.file 44 "../../lib/e-puck2_main-processor/ChibiOS//os/hal/ports/STM32/LLD/USARTv1/serial_lld.h"
 569              		.file 45 "../../lib/e-puck2_main-processor/ChibiOS//os/hal/include/sdc.h"
 570              		.file 46 "../../lib/e-puck2_main-processor/ChibiOS//os/hal/ports/STM32/LLD/sdc_lld.h"
 571              		.file 47 "../../lib/e-puck2_main-processor/ChibiOS//os/hal/include/spi.h"
 572              		.file 48 "../../lib/e-puck2_main-processor/ChibiOS//os/hal/ports/STM32/LLD/SPIv1/spi_lld.h"
 573              		.file 49 "../../lib/e-puck2_main-processor/ChibiOS//os/hal/include/usb.h"
 574              		.file 50 "../../lib/e-puck2_main-processor/ChibiOS//os/hal/ports/STM32/LLD/OTGv1/usb_lld.h"
 575              		.file 51 "../../lib/e-puck2_main-processor/ChibiOS//os/hal/ports/STM32/LLD/OTGv1/stm32_otg.h"
 576              		.file 52 "../../lib/e-puck2_main-processor/ChibiOS//os/hal/include/serial_usb.h"
 577              		.file 53 "c:\\users\\isisb\\onedrive\\desktop\\eclipse\\tools\\gcc-arm-none-eabi-7-2017-q4-major-w
 578              		.file 54 "<built-in>"
 579              		.file 55 "../../lib/e-puck2_main-processor/src/usbcfg.h"
 580              		.file 56 "../../lib/e-puck2_main-processor/src/sensors/proximity.h"
 581              		.file 57 "../../lib/e-puck2_main-processor/ChibiOS//os/rt/include/chthreads.h"
 582              		.file 58 "move.h"